;
; File generated by cc65 v 2.15
;
	.fopt		compiler,"cc65 v 2.15"
	.setcpu		"6502"
	.smart		on
	.autoimport	on
	.case		on
	.debuginfo	off
	.importzp	sp, sreg, regsave, regbank
	.importzp	tmp1, tmp2, tmp3, tmp4, ptr1, ptr2, ptr3, ptr4
	.macpack	longbranch
	.forceimport	__STARTUP__
	.importzp	_FrameCount
	.importzp	_InputPort1
	.importzp	_InputPort1Prev
	.importzp	_VRAMUpdateReady
	.importzp	_Scroll
	.importzp	_BGDestAddr
	.importzp	_BGBuffer
	.import		_WaitFrame
	.import		_bankswitch
	.import		_flushBGBuffer
	.export		_endLoop
	.export		_i
	.export		_x
	.export		_y
	.export		_mapX
	.export		_mapY
	.export		_tileIndex
	.export		_tile
	.export		_tileIdx
	.export		_currentEntityId
	.export		_currentMetaSpriteId
	.export		_mapCurrentLine
	.export		_timer
	.export		_scrollIncrement
	.export		_playerId
	.export		_sprites
	.export		_titlePalette
	.export		_titleScreen
	.export		_copyTitleScreen
	.export		_mapPalette
	.export		_map
	.export		_mapLineCount
	.export		_copyBgLine
	.export		_fillBackground
	.export		_playerSpriteFrames
	.export		_drawMetaSprite
	.export		_drawSprite
	.export		_nextBullet
	.export		_entities
	.export		_freeEntityList
	.export		_entityList
	.export		_missileList
	.export		_initEntityList
	.export		_pushEntity
	.export		_removeEntity
	.export		_popEntity
	.export		_spawnBullet
	.export		_knightUpdate
	.export		_spawnKnight
	.export		_playerUpdate
	.export		_loadPalette
	.export		_main

.segment	"DATA"

_nextBullet:
	.byte	$00
_freeEntityList:
	.byte	$FF
_entityList:
	.byte	$FF
_missileList:
	.byte	$FF

.segment	"RODATA"

_titlePalette:
	.byte	$0F
	.byte	$16
	.byte	$27
	.byte	$06
	.byte	$0F
	.byte	$2D
	.byte	$2D
	.byte	$2D
	.byte	$0F
	.byte	$30
	.byte	$30
	.byte	$0F
	.byte	$0F
	.byte	$19
	.byte	$29
	.byte	$39
	.byte	$0F
	.byte	$16
	.byte	$05
	.byte	$27
	.byte	$0F
	.byte	$11
	.byte	$21
	.byte	$31
	.byte	$0F
	.byte	$15
	.byte	$25
	.byte	$35
	.byte	$0F
	.byte	$19
	.byte	$29
	.byte	$39
_titleScreen:
	.byte	$00
	.byte	$00
	.byte	$00
	.byte	$00
	.byte	$00
	.byte	$00
	.byte	$00
	.byte	$00
	.byte	$00
	.byte	$00
	.byte	$00
	.byte	$00
	.byte	$00
	.byte	$00
	.byte	$00
	.byte	$00
	.byte	$00
	.byte	$00
	.byte	$00
	.byte	$00
	.byte	$00
	.byte	$00
	.byte	$00
	.byte	$00
	.byte	$00
	.byte	$00
	.byte	$00
	.byte	$00
	.byte	$00
	.byte	$00
	.byte	$00
	.byte	$00
	.byte	$00
	.byte	$00
	.byte	$00
	.byte	$00
	.byte	$00
	.byte	$00
	.byte	$00
	.byte	$00
	.byte	$00
	.byte	$00
	.byte	$00
	.byte	$00
	.byte	$00
	.byte	$00
	.byte	$00
	.byte	$00
	.byte	$00
	.byte	$00
	.byte	$00
	.byte	$00
	.byte	$00
	.byte	$00
	.byte	$00
	.byte	$00
	.byte	$00
	.byte	$00
	.byte	$00
	.byte	$00
	.byte	$00
	.byte	$00
	.byte	$00
	.byte	$00
	.byte	$00
	.byte	$00
	.byte	$00
	.byte	$00
	.byte	$00
	.byte	$00
	.byte	$00
	.byte	$00
	.byte	$00
	.byte	$00
	.byte	$00
	.byte	$00
	.byte	$00
	.byte	$00
	.byte	$00
	.byte	$00
	.byte	$00
	.byte	$00
	.byte	$00
	.byte	$00
	.byte	$00
	.byte	$00
	.byte	$00
	.byte	$00
	.byte	$00
	.byte	$00
	.byte	$00
	.byte	$00
	.byte	$00
	.byte	$00
	.byte	$00
	.byte	$00
	.byte	$00
	.byte	$00
	.byte	$00
	.byte	$00
	.byte	$85
	.byte	$86
	.byte	$86
	.byte	$86
	.byte	$86
	.byte	$87
	.byte	$00
	.byte	$00
	.byte	$00
	.byte	$00
	.byte	$00
	.byte	$00
	.byte	$00
	.byte	$00
	.byte	$00
	.byte	$00
	.byte	$00
	.byte	$00
	.byte	$00
	.byte	$00
	.byte	$00
	.byte	$00
	.byte	$00
	.byte	$00
	.byte	$00
	.byte	$00
	.byte	$00
	.byte	$00
	.byte	$00
	.byte	$00
	.byte	$00
	.byte	$00
	.byte	$95
	.byte	$00
	.byte	$00
	.byte	$00
	.byte	$00
	.byte	$97
	.byte	$00
	.byte	$00
	.byte	$00
	.byte	$00
	.byte	$00
	.byte	$00
	.byte	$00
	.byte	$00
	.byte	$00
	.byte	$00
	.byte	$00
	.byte	$00
	.byte	$00
	.byte	$00
	.byte	$00
	.byte	$00
	.byte	$00
	.byte	$00
	.byte	$00
	.byte	$00
	.byte	$00
	.byte	$00
	.byte	$00
	.byte	$00
	.byte	$00
	.byte	$00
	.byte	$95
	.byte	$00
	.byte	$B0
	.byte	$B1
	.byte	$00
	.byte	$88
	.byte	$86
	.byte	$86
	.byte	$86
	.byte	$86
	.byte	$86
	.byte	$86
	.byte	$86
	.byte	$86
	.byte	$86
	.byte	$86
	.byte	$86
	.byte	$86
	.byte	$86
	.byte	$86
	.byte	$86
	.byte	$86
	.byte	$87
	.byte	$00
	.byte	$00
	.byte	$00
	.byte	$00
	.byte	$00
	.byte	$00
	.byte	$00
	.byte	$00
	.byte	$00
	.byte	$95
	.byte	$00
	.byte	$C0
	.byte	$C1
	.byte	$00
	.byte	$00
	.byte	$00
	.byte	$00
	.byte	$00
	.byte	$00
	.byte	$00
	.byte	$00
	.byte	$00
	.byte	$00
	.byte	$00
	.byte	$00
	.byte	$00
	.byte	$00
	.byte	$00
	.byte	$00
	.byte	$00
	.byte	$00
	.byte	$97
	.byte	$00
	.byte	$00
	.byte	$00
	.byte	$00
	.byte	$00
	.byte	$00
	.byte	$00
	.byte	$00
	.byte	$00
	.byte	$95
	.byte	$00
	.byte	$20
	.byte	$21
	.byte	$22
	.byte	$23
	.byte	$24
	.byte	$25
	.byte	$26
	.byte	$27
	.byte	$28
	.byte	$29
	.byte	$2A
	.byte	$2B
	.byte	$2C
	.byte	$2D
	.byte	$82
	.byte	$83
	.byte	$84
	.byte	$26
	.byte	$27
	.byte	$00
	.byte	$97
	.byte	$00
	.byte	$00
	.byte	$00
	.byte	$00
	.byte	$00
	.byte	$00
	.byte	$00
	.byte	$00
	.byte	$00
	.byte	$95
	.byte	$00
	.byte	$30
	.byte	$31
	.byte	$32
	.byte	$33
	.byte	$34
	.byte	$35
	.byte	$36
	.byte	$37
	.byte	$38
	.byte	$39
	.byte	$3A
	.byte	$3B
	.byte	$3C
	.byte	$3D
	.byte	$92
	.byte	$93
	.byte	$94
	.byte	$36
	.byte	$37
	.byte	$00
	.byte	$97
	.byte	$00
	.byte	$00
	.byte	$00
	.byte	$00
	.byte	$00
	.byte	$00
	.byte	$00
	.byte	$00
	.byte	$00
	.byte	$95
	.byte	$00
	.byte	$40
	.byte	$41
	.byte	$42
	.byte	$43
	.byte	$44
	.byte	$45
	.byte	$46
	.byte	$47
	.byte	$48
	.byte	$49
	.byte	$4A
	.byte	$4B
	.byte	$4C
	.byte	$4D
	.byte	$A2
	.byte	$A3
	.byte	$A4
	.byte	$46
	.byte	$47
	.byte	$00
	.byte	$97
	.byte	$00
	.byte	$00
	.byte	$00
	.byte	$00
	.byte	$00
	.byte	$00
	.byte	$00
	.byte	$00
	.byte	$00
	.byte	$95
	.byte	$00
	.byte	$50
	.byte	$51
	.byte	$52
	.byte	$53
	.byte	$54
	.byte	$55
	.byte	$56
	.byte	$57
	.byte	$58
	.byte	$59
	.byte	$5A
	.byte	$5B
	.byte	$5C
	.byte	$5D
	.byte	$B2
	.byte	$B3
	.byte	$B4
	.byte	$56
	.byte	$57
	.byte	$00
	.byte	$97
	.byte	$00
	.byte	$00
	.byte	$00
	.byte	$00
	.byte	$00
	.byte	$00
	.byte	$00
	.byte	$00
	.byte	$00
	.byte	$95
	.byte	$00
	.byte	$60
	.byte	$61
	.byte	$62
	.byte	$63
	.byte	$64
	.byte	$65
	.byte	$66
	.byte	$67
	.byte	$68
	.byte	$69
	.byte	$6A
	.byte	$6B
	.byte	$6C
	.byte	$6D
	.byte	$C2
	.byte	$C3
	.byte	$C4
	.byte	$66
	.byte	$67
	.byte	$00
	.byte	$97
	.byte	$00
	.byte	$00
	.byte	$00
	.byte	$00
	.byte	$00
	.byte	$00
	.byte	$00
	.byte	$00
	.byte	$00
	.byte	$95
	.byte	$00
	.byte	$70
	.byte	$71
	.byte	$72
	.byte	$73
	.byte	$74
	.byte	$75
	.byte	$76
	.byte	$77
	.byte	$78
	.byte	$79
	.byte	$7A
	.byte	$7B
	.byte	$7C
	.byte	$7D
	.byte	$D2
	.byte	$D3
	.byte	$D4
	.byte	$76
	.byte	$77
	.byte	$00
	.byte	$97
	.byte	$00
	.byte	$00
	.byte	$00
	.byte	$00
	.byte	$00
	.byte	$00
	.byte	$00
	.byte	$00
	.byte	$00
	.byte	$95
	.byte	$00
	.byte	$90
	.byte	$91
	.byte	$00
	.byte	$00
	.byte	$00
	.byte	$00
	.byte	$00
	.byte	$00
	.byte	$00
	.byte	$00
	.byte	$00
	.byte	$00
	.byte	$00
	.byte	$00
	.byte	$00
	.byte	$00
	.byte	$00
	.byte	$00
	.byte	$00
	.byte	$00
	.byte	$97
	.byte	$00
	.byte	$00
	.byte	$00
	.byte	$00
	.byte	$00
	.byte	$00
	.byte	$00
	.byte	$00
	.byte	$00
	.byte	$95
	.byte	$00
	.byte	$A0
	.byte	$A1
	.byte	$00
	.byte	$98
	.byte	$A6
	.byte	$A6
	.byte	$A6
	.byte	$A6
	.byte	$A6
	.byte	$A6
	.byte	$A6
	.byte	$A6
	.byte	$A6
	.byte	$A6
	.byte	$A6
	.byte	$A6
	.byte	$A6
	.byte	$A6
	.byte	$A6
	.byte	$A6
	.byte	$A7
	.byte	$00
	.byte	$00
	.byte	$00
	.byte	$00
	.byte	$00
	.byte	$00
	.byte	$00
	.byte	$00
	.byte	$00
	.byte	$95
	.byte	$00
	.byte	$00
	.byte	$00
	.byte	$00
	.byte	$97
	.byte	$00
	.byte	$00
	.byte	$00
	.byte	$00
	.byte	$00
	.byte	$00
	.byte	$00
	.byte	$00
	.byte	$00
	.byte	$00
	.byte	$00
	.byte	$00
	.byte	$00
	.byte	$00
	.byte	$00
	.byte	$00
	.byte	$00
	.byte	$00
	.byte	$00
	.byte	$00
	.byte	$00
	.byte	$00
	.byte	$00
	.byte	$00
	.byte	$00
	.byte	$00
	.byte	$A5
	.byte	$A6
	.byte	$A6
	.byte	$A6
	.byte	$A6
	.byte	$A7
	.byte	$00
	.byte	$00
	.byte	$00
	.byte	$00
	.byte	$00
	.byte	$00
	.byte	$00
	.byte	$00
	.byte	$00
	.byte	$00
	.byte	$00
	.byte	$00
	.byte	$00
	.byte	$00
	.byte	$00
	.byte	$00
	.byte	$00
	.byte	$00
	.byte	$00
	.byte	$00
	.byte	$00
	.byte	$00
	.byte	$00
	.byte	$00
	.byte	$00
	.byte	$00
	.byte	$00
	.byte	$00
	.byte	$00
	.byte	$00
	.byte	$00
	.byte	$00
	.byte	$00
	.byte	$00
	.byte	$00
	.byte	$00
	.byte	$00
	.byte	$00
	.byte	$00
	.byte	$00
	.byte	$00
	.byte	$00
	.byte	$00
	.byte	$00
	.byte	$00
	.byte	$00
	.byte	$00
	.byte	$00
	.byte	$00
	.byte	$00
	.byte	$00
	.byte	$00
	.byte	$00
	.byte	$00
	.byte	$00
	.byte	$00
	.byte	$00
	.byte	$00
	.byte	$00
	.byte	$00
	.byte	$00
	.byte	$00
	.byte	$00
	.byte	$00
	.byte	$00
	.byte	$00
	.byte	$00
	.byte	$00
	.byte	$00
	.byte	$00
	.byte	$00
	.byte	$00
	.byte	$00
	.byte	$00
	.byte	$00
	.byte	$00
	.byte	$00
	.byte	$00
	.byte	$00
	.byte	$00
	.byte	$00
	.byte	$00
	.byte	$00
	.byte	$00
	.byte	$00
	.byte	$00
	.byte	$00
	.byte	$00
	.byte	$00
	.byte	$00
	.byte	$00
	.byte	$00
	.byte	$00
	.byte	$00
	.byte	$00
	.byte	$00
	.byte	$00
	.byte	$00
	.byte	$00
	.byte	$00
	.byte	$00
	.byte	$00
	.byte	$00
	.byte	$00
	.byte	$00
	.byte	$00
	.byte	$00
	.byte	$00
	.byte	$00
	.byte	$00
	.byte	$00
	.byte	$00
	.byte	$00
	.byte	$00
	.byte	$00
	.byte	$00
	.byte	$00
	.byte	$00
	.byte	$00
	.byte	$00
	.byte	$00
	.byte	$00
	.byte	$00
	.byte	$00
	.byte	$00
	.byte	$00
	.byte	$00
	.byte	$00
	.byte	$B5
	.byte	$B6
	.byte	$B7
	.byte	$B8
	.byte	$B8
	.byte	$00
	.byte	$00
	.byte	$B8
	.byte	$B9
	.byte	$BA
	.byte	$B6
	.byte	$B9
	.byte	$00
	.byte	$00
	.byte	$00
	.byte	$00
	.byte	$00
	.byte	$00
	.byte	$00
	.byte	$00
	.byte	$00
	.byte	$00
	.byte	$00
	.byte	$00
	.byte	$00
	.byte	$00
	.byte	$00
	.byte	$00
	.byte	$00
	.byte	$00
	.byte	$00
	.byte	$00
	.byte	$00
	.byte	$00
	.byte	$00
	.byte	$00
	.byte	$00
	.byte	$00
	.byte	$00
	.byte	$00
	.byte	$00
	.byte	$00
	.byte	$00
	.byte	$00
	.byte	$00
	.byte	$00
	.byte	$00
	.byte	$00
	.byte	$00
	.byte	$00
	.byte	$00
	.byte	$00
	.byte	$00
	.byte	$00
	.byte	$00
	.byte	$00
	.byte	$00
	.byte	$00
	.byte	$00
	.byte	$00
	.byte	$00
	.byte	$00
	.byte	$00
	.byte	$00
	.byte	$00
	.byte	$00
	.byte	$00
	.byte	$00
	.byte	$00
	.byte	$00
	.byte	$00
	.byte	$00
	.byte	$00
	.byte	$00
	.byte	$00
	.byte	$00
	.byte	$00
	.byte	$00
	.byte	$00
	.byte	$00
	.byte	$00
	.byte	$00
	.byte	$00
	.byte	$00
	.byte	$00
	.byte	$00
	.byte	$00
	.byte	$00
	.byte	$00
	.byte	$00
	.byte	$00
	.byte	$00
	.byte	$00
	.byte	$00
	.byte	$00
	.byte	$00
	.byte	$00
	.byte	$00
	.byte	$00
	.byte	$00
	.byte	$00
	.byte	$00
	.byte	$00
	.byte	$00
	.byte	$00
	.byte	$00
	.byte	$00
	.byte	$00
	.byte	$00
	.byte	$00
	.byte	$00
	.byte	$00
	.byte	$00
	.byte	$00
	.byte	$00
	.byte	$00
	.byte	$00
	.byte	$00
	.byte	$00
	.byte	$00
	.byte	$00
	.byte	$00
	.byte	$00
	.byte	$00
	.byte	$00
	.byte	$00
	.byte	$00
	.byte	$00
	.byte	$00
	.byte	$00
	.byte	$00
	.byte	$00
	.byte	$00
	.byte	$00
	.byte	$00
	.byte	$00
	.byte	$00
	.byte	$00
	.byte	$00
	.byte	$00
	.byte	$00
	.byte	$00
	.byte	$00
	.byte	$00
	.byte	$00
	.byte	$00
	.byte	$00
	.byte	$00
	.byte	$00
	.byte	$00
	.byte	$00
	.byte	$00
	.byte	$00
	.byte	$00
	.byte	$00
	.byte	$00
	.byte	$00
	.byte	$00
	.byte	$00
	.byte	$00
	.byte	$00
	.byte	$00
	.byte	$00
	.byte	$00
	.byte	$00
	.byte	$00
	.byte	$00
	.byte	$00
	.byte	$00
	.byte	$00
	.byte	$00
	.byte	$00
	.byte	$00
	.byte	$00
	.byte	$00
	.byte	$00
	.byte	$00
	.byte	$00
	.byte	$00
	.byte	$00
	.byte	$00
	.byte	$00
	.byte	$00
	.byte	$00
	.byte	$00
	.byte	$00
	.byte	$00
	.byte	$00
	.byte	$00
	.byte	$00
	.byte	$00
	.byte	$00
	.byte	$00
	.byte	$00
	.byte	$00
	.byte	$00
	.byte	$00
	.byte	$00
	.byte	$00
	.byte	$00
	.byte	$00
	.byte	$00
	.byte	$00
	.byte	$00
	.byte	$00
	.byte	$00
	.byte	$00
	.byte	$00
	.byte	$00
	.byte	$00
	.byte	$00
	.byte	$00
	.byte	$00
	.byte	$00
	.byte	$00
	.byte	$BE
	.byte	$BC
	.byte	$BA
	.byte	$BB
	.byte	$B6
	.byte	$B7
	.byte	$C9
	.byte	$B5
	.byte	$BB
	.byte	$BC
	.byte	$BD
	.byte	$00
	.byte	$C5
	.byte	$C6
	.byte	$C7
	.byte	$C8
	.byte	$00
	.byte	$00
	.byte	$00
	.byte	$00
	.byte	$00
	.byte	$00
	.byte	$00
	.byte	$00
	.byte	$00
	.byte	$00
	.byte	$00
	.byte	$00
	.byte	$00
	.byte	$00
	.byte	$00
	.byte	$00
	.byte	$00
	.byte	$00
	.byte	$00
	.byte	$00
	.byte	$00
	.byte	$00
	.byte	$00
	.byte	$00
	.byte	$00
	.byte	$00
	.byte	$00
	.byte	$00
	.byte	$00
	.byte	$00
	.byte	$00
	.byte	$00
	.byte	$00
	.byte	$00
	.byte	$00
	.byte	$00
	.byte	$00
	.byte	$00
	.byte	$00
	.byte	$00
	.byte	$00
	.byte	$00
	.byte	$00
	.byte	$00
	.byte	$00
	.byte	$00
	.byte	$00
	.byte	$00
	.byte	$00
	.byte	$00
	.byte	$00
	.byte	$00
	.byte	$00
	.byte	$00
	.byte	$00
	.byte	$00
	.byte	$00
	.byte	$00
	.byte	$00
	.byte	$00
	.byte	$00
	.byte	$00
	.byte	$00
	.byte	$00
	.byte	$00
	.byte	$00
	.byte	$00
	.byte	$00
	.byte	$00
	.byte	$00
	.byte	$00
	.byte	$00
	.byte	$00
	.byte	$00
	.byte	$00
	.byte	$00
	.byte	$00
	.byte	$00
	.byte	$00
_mapPalette:
	.byte	$1A
	.byte	$29
	.byte	$09
	.byte	$17
	.byte	$1A
	.byte	$2D
	.byte	$20
	.byte	$1D
	.byte	$1A
	.byte	$15
	.byte	$25
	.byte	$35
	.byte	$1A
	.byte	$19
	.byte	$29
	.byte	$39
	.byte	$1A
	.byte	$16
	.byte	$05
	.byte	$27
	.byte	$1A
	.byte	$00
	.byte	$10
	.byte	$0F
	.byte	$1A
	.byte	$05
	.byte	$27
	.byte	$37
	.byte	$1A
	.byte	$19
	.byte	$29
	.byte	$39
_map:
	.byte	$06
	.byte	$02
	.byte	$02
	.byte	$02
	.byte	$02
	.byte	$00
	.byte	$00
	.byte	$00
	.byte	$00
	.byte	$00
	.byte	$00
	.byte	$00
	.byte	$00
	.byte	$00
	.byte	$00
	.byte	$06
	.byte	$06
	.byte	$00
	.byte	$00
	.byte	$00
	.byte	$00
	.byte	$00
	.byte	$00
	.byte	$00
	.byte	$00
	.byte	$00
	.byte	$00
	.byte	$00
	.byte	$00
	.byte	$00
	.byte	$00
	.byte	$00
	.byte	$06
	.byte	$06
	.byte	$00
	.byte	$00
	.byte	$00
	.byte	$00
	.byte	$00
	.byte	$00
	.byte	$00
	.byte	$00
	.byte	$00
	.byte	$00
	.byte	$00
	.byte	$00
	.byte	$00
	.byte	$00
	.byte	$06
	.byte	$00
	.byte	$00
	.byte	$00
	.byte	$00
	.byte	$00
	.byte	$00
	.byte	$00
	.byte	$00
	.byte	$00
	.byte	$00
	.byte	$00
	.byte	$00
	.byte	$00
	.byte	$00
	.byte	$06
	.byte	$06
	.byte	$00
	.byte	$00
	.byte	$00
	.byte	$00
	.byte	$00
	.byte	$00
	.byte	$00
	.byte	$00
	.byte	$00
	.byte	$00
	.byte	$00
	.byte	$00
	.byte	$00
	.byte	$00
	.byte	$00
	.byte	$06
	.byte	$00
	.byte	$00
	.byte	$00
	.byte	$00
	.byte	$00
	.byte	$00
	.byte	$00
	.byte	$00
	.byte	$00
	.byte	$00
	.byte	$00
	.byte	$00
	.byte	$00
	.byte	$00
	.byte	$00
	.byte	$06
	.byte	$00
	.byte	$00
	.byte	$00
	.byte	$00
	.byte	$00
	.byte	$00
	.byte	$00
	.byte	$00
	.byte	$00
	.byte	$00
	.byte	$00
	.byte	$00
	.byte	$00
	.byte	$00
	.byte	$00
	.byte	$00
	.byte	$00
	.byte	$00
	.byte	$00
	.byte	$00
	.byte	$00
	.byte	$00
	.byte	$00
	.byte	$00
	.byte	$00
	.byte	$00
	.byte	$00
	.byte	$00
	.byte	$00
	.byte	$00
	.byte	$06
	.byte	$00
	.byte	$00
	.byte	$00
	.byte	$00
	.byte	$00
	.byte	$00
	.byte	$00
	.byte	$00
	.byte	$00
	.byte	$00
	.byte	$00
	.byte	$00
	.byte	$00
	.byte	$00
	.byte	$00
	.byte	$00
	.byte	$06
	.byte	$00
	.byte	$00
	.byte	$00
	.byte	$00
	.byte	$00
	.byte	$00
	.byte	$00
	.byte	$00
	.byte	$00
	.byte	$00
	.byte	$00
	.byte	$00
	.byte	$00
	.byte	$00
	.byte	$00
	.byte	$06
	.byte	$00
	.byte	$00
	.byte	$00
	.byte	$00
	.byte	$00
	.byte	$00
	.byte	$00
	.byte	$00
	.byte	$00
	.byte	$00
	.byte	$00
	.byte	$00
	.byte	$00
	.byte	$00
	.byte	$00
	.byte	$06
	.byte	$00
	.byte	$00
	.byte	$00
	.byte	$00
	.byte	$00
	.byte	$00
	.byte	$00
	.byte	$00
	.byte	$00
	.byte	$00
	.byte	$00
	.byte	$00
	.byte	$00
	.byte	$00
	.byte	$06
	.byte	$00
	.byte	$00
	.byte	$00
	.byte	$00
	.byte	$00
	.byte	$00
	.byte	$00
	.byte	$00
	.byte	$00
	.byte	$00
	.byte	$00
	.byte	$00
	.byte	$00
	.byte	$00
	.byte	$00
	.byte	$00
	.byte	$00
	.byte	$00
	.byte	$00
	.byte	$00
	.byte	$00
	.byte	$00
	.byte	$00
	.byte	$00
	.byte	$00
	.byte	$00
	.byte	$00
	.byte	$00
	.byte	$00
	.byte	$00
	.byte	$00
	.byte	$00
	.byte	$06
	.byte	$00
	.byte	$00
	.byte	$00
	.byte	$00
	.byte	$00
	.byte	$00
	.byte	$00
	.byte	$00
	.byte	$00
	.byte	$00
	.byte	$00
	.byte	$00
	.byte	$00
	.byte	$00
	.byte	$00
	.byte	$00
	.byte	$00
	.byte	$00
	.byte	$00
	.byte	$00
	.byte	$00
	.byte	$00
	.byte	$00
	.byte	$00
	.byte	$00
	.byte	$00
	.byte	$00
	.byte	$00
	.byte	$00
	.byte	$00
	.byte	$00
	.byte	$06
	.byte	$00
	.byte	$00
	.byte	$00
	.byte	$00
	.byte	$00
	.byte	$00
	.byte	$00
	.byte	$00
	.byte	$00
	.byte	$00
	.byte	$00
	.byte	$00
	.byte	$00
	.byte	$00
	.byte	$06
	.byte	$00
	.byte	$00
	.byte	$00
	.byte	$00
	.byte	$00
	.byte	$00
	.byte	$00
	.byte	$00
	.byte	$00
	.byte	$00
	.byte	$00
	.byte	$00
	.byte	$00
	.byte	$00
	.byte	$00
	.byte	$00
	.byte	$00
	.byte	$00
	.byte	$00
	.byte	$00
	.byte	$00
	.byte	$00
	.byte	$00
	.byte	$00
	.byte	$00
	.byte	$00
	.byte	$00
	.byte	$00
	.byte	$00
	.byte	$00
	.byte	$00
	.byte	$00
	.byte	$00
	.byte	$00
	.byte	$00
	.byte	$00
	.byte	$00
	.byte	$00
	.byte	$00
	.byte	$00
	.byte	$00
	.byte	$00
	.byte	$00
	.byte	$00
	.byte	$00
	.byte	$00
	.byte	$00
	.byte	$06
	.byte	$06
	.byte	$00
	.byte	$00
	.byte	$00
	.byte	$00
	.byte	$00
	.byte	$00
	.byte	$00
	.byte	$00
	.byte	$00
	.byte	$00
	.byte	$00
	.byte	$00
	.byte	$00
	.byte	$00
	.byte	$00
	.byte	$00
	.byte	$00
	.byte	$00
	.byte	$00
	.byte	$00
	.byte	$00
	.byte	$00
	.byte	$00
	.byte	$00
	.byte	$00
	.byte	$00
	.byte	$00
	.byte	$00
	.byte	$00
	.byte	$00
	.byte	$06
	.byte	$00
	.byte	$00
	.byte	$00
	.byte	$00
	.byte	$00
	.byte	$00
	.byte	$00
	.byte	$00
	.byte	$00
	.byte	$00
	.byte	$00
	.byte	$00
	.byte	$00
	.byte	$00
	.byte	$00
	.byte	$00
	.byte	$00
	.byte	$00
	.byte	$00
	.byte	$00
	.byte	$00
	.byte	$00
	.byte	$00
	.byte	$00
	.byte	$00
	.byte	$00
	.byte	$00
	.byte	$00
	.byte	$00
	.byte	$00
	.byte	$00
	.byte	$00
	.byte	$00
	.byte	$00
	.byte	$00
	.byte	$00
	.byte	$00
	.byte	$00
	.byte	$00
	.byte	$00
	.byte	$00
	.byte	$00
	.byte	$00
	.byte	$00
	.byte	$00
	.byte	$00
	.byte	$00
	.byte	$06
	.byte	$00
	.byte	$00
	.byte	$00
	.byte	$00
	.byte	$00
	.byte	$00
	.byte	$00
	.byte	$00
	.byte	$00
	.byte	$00
	.byte	$00
	.byte	$00
	.byte	$00
	.byte	$00
	.byte	$00
	.byte	$00
	.byte	$00
	.byte	$00
	.byte	$00
	.byte	$00
	.byte	$00
	.byte	$00
	.byte	$00
	.byte	$00
	.byte	$00
	.byte	$00
	.byte	$00
	.byte	$00
	.byte	$00
	.byte	$00
	.byte	$00
	.byte	$00
	.byte	$00
	.byte	$00
	.byte	$00
	.byte	$00
	.byte	$00
	.byte	$00
	.byte	$00
	.byte	$00
	.byte	$00
	.byte	$00
	.byte	$00
	.byte	$00
	.byte	$00
	.byte	$00
	.byte	$00
	.byte	$06
	.byte	$00
	.byte	$00
	.byte	$00
	.byte	$00
	.byte	$00
	.byte	$00
	.byte	$00
	.byte	$00
	.byte	$00
	.byte	$00
	.byte	$00
	.byte	$00
	.byte	$00
	.byte	$00
	.byte	$06
	.byte	$06
	.byte	$03
	.byte	$03
	.byte	$03
	.byte	$03
	.byte	$03
	.byte	$03
	.byte	$03
	.byte	$00
	.byte	$00
	.byte	$00
	.byte	$00
	.byte	$00
	.byte	$00
	.byte	$00
	.byte	$00
	.byte	$06
	.byte	$06
	.byte	$02
	.byte	$02
	.byte	$02
	.byte	$02
	.byte	$00
	.byte	$00
	.byte	$00
	.byte	$00
	.byte	$00
	.byte	$00
	.byte	$00
	.byte	$00
	.byte	$00
	.byte	$00
	.byte	$06
	.byte	$06
	.byte	$00
	.byte	$00
	.byte	$00
	.byte	$00
	.byte	$00
	.byte	$00
	.byte	$00
	.byte	$00
	.byte	$00
	.byte	$00
	.byte	$00
	.byte	$00
	.byte	$00
	.byte	$00
	.byte	$00
	.byte	$06
	.byte	$06
	.byte	$00
	.byte	$00
	.byte	$00
	.byte	$00
	.byte	$00
	.byte	$00
	.byte	$00
	.byte	$00
	.byte	$00
	.byte	$00
	.byte	$00
	.byte	$00
	.byte	$00
	.byte	$00
	.byte	$06
	.byte	$00
	.byte	$00
	.byte	$00
	.byte	$00
	.byte	$00
	.byte	$00
	.byte	$00
	.byte	$00
	.byte	$00
	.byte	$00
	.byte	$00
	.byte	$00
	.byte	$00
	.byte	$00
	.byte	$06
	.byte	$06
	.byte	$00
	.byte	$00
	.byte	$00
	.byte	$00
	.byte	$00
	.byte	$00
	.byte	$00
	.byte	$00
	.byte	$00
	.byte	$00
	.byte	$00
	.byte	$00
	.byte	$00
	.byte	$00
	.byte	$00
	.byte	$06
	.byte	$00
	.byte	$00
	.byte	$00
	.byte	$00
	.byte	$00
	.byte	$00
	.byte	$00
	.byte	$00
	.byte	$00
	.byte	$00
	.byte	$00
	.byte	$00
	.byte	$00
	.byte	$00
	.byte	$00
	.byte	$06
	.byte	$00
	.byte	$00
	.byte	$00
	.byte	$00
	.byte	$00
	.byte	$00
	.byte	$00
	.byte	$00
	.byte	$00
	.byte	$00
	.byte	$00
	.byte	$00
	.byte	$00
	.byte	$00
	.byte	$00
	.byte	$00
	.byte	$00
	.byte	$00
	.byte	$00
	.byte	$00
	.byte	$00
	.byte	$00
	.byte	$00
	.byte	$00
	.byte	$00
	.byte	$00
	.byte	$00
	.byte	$00
	.byte	$00
	.byte	$00
	.byte	$06
	.byte	$00
	.byte	$00
	.byte	$00
	.byte	$00
	.byte	$00
	.byte	$00
	.byte	$00
	.byte	$00
	.byte	$00
	.byte	$00
	.byte	$00
	.byte	$00
	.byte	$00
	.byte	$00
	.byte	$00
	.byte	$00
	.byte	$06
	.byte	$00
	.byte	$00
	.byte	$00
	.byte	$00
	.byte	$00
	.byte	$00
	.byte	$00
	.byte	$00
	.byte	$00
	.byte	$00
	.byte	$00
	.byte	$00
	.byte	$00
	.byte	$00
	.byte	$00
	.byte	$06
	.byte	$00
	.byte	$00
	.byte	$00
	.byte	$00
	.byte	$00
	.byte	$00
	.byte	$00
	.byte	$00
	.byte	$00
	.byte	$00
	.byte	$00
	.byte	$00
	.byte	$00
	.byte	$00
	.byte	$00
	.byte	$06
	.byte	$00
	.byte	$00
	.byte	$00
	.byte	$00
	.byte	$00
	.byte	$00
	.byte	$00
	.byte	$00
	.byte	$00
	.byte	$00
	.byte	$00
	.byte	$00
	.byte	$00
	.byte	$00
	.byte	$06
	.byte	$00
	.byte	$00
	.byte	$00
	.byte	$00
	.byte	$00
	.byte	$00
	.byte	$00
	.byte	$00
	.byte	$00
	.byte	$00
	.byte	$00
	.byte	$00
	.byte	$00
	.byte	$00
	.byte	$00
	.byte	$00
	.byte	$00
	.byte	$00
	.byte	$00
	.byte	$00
	.byte	$00
	.byte	$00
	.byte	$00
	.byte	$00
	.byte	$00
	.byte	$00
	.byte	$00
	.byte	$00
	.byte	$00
	.byte	$00
	.byte	$00
	.byte	$00
	.byte	$06
	.byte	$00
	.byte	$00
	.byte	$00
	.byte	$00
	.byte	$00
	.byte	$00
	.byte	$00
	.byte	$00
	.byte	$00
	.byte	$00
	.byte	$00
	.byte	$00
	.byte	$00
	.byte	$00
	.byte	$00
	.byte	$00
	.byte	$00
	.byte	$00
	.byte	$00
	.byte	$00
	.byte	$00
	.byte	$00
	.byte	$00
	.byte	$00
	.byte	$00
	.byte	$00
	.byte	$00
	.byte	$00
	.byte	$00
	.byte	$00
	.byte	$00
	.byte	$06
	.byte	$00
	.byte	$00
	.byte	$00
	.byte	$00
	.byte	$00
	.byte	$00
	.byte	$00
	.byte	$00
	.byte	$00
	.byte	$00
	.byte	$00
	.byte	$00
	.byte	$00
	.byte	$00
	.byte	$06
	.byte	$00
	.byte	$00
	.byte	$00
	.byte	$00
	.byte	$00
	.byte	$00
	.byte	$00
	.byte	$00
	.byte	$00
	.byte	$00
	.byte	$00
	.byte	$00
	.byte	$00
	.byte	$00
	.byte	$00
	.byte	$00
	.byte	$00
	.byte	$00
	.byte	$00
	.byte	$00
	.byte	$00
	.byte	$00
	.byte	$00
	.byte	$00
	.byte	$00
	.byte	$00
	.byte	$00
	.byte	$00
	.byte	$00
	.byte	$00
	.byte	$00
	.byte	$00
	.byte	$00
	.byte	$00
	.byte	$00
	.byte	$00
	.byte	$00
	.byte	$00
	.byte	$00
	.byte	$00
	.byte	$00
	.byte	$00
	.byte	$00
	.byte	$00
	.byte	$00
	.byte	$00
	.byte	$00
	.byte	$06
	.byte	$06
	.byte	$00
	.byte	$00
	.byte	$00
	.byte	$00
	.byte	$00
	.byte	$00
	.byte	$00
	.byte	$00
	.byte	$00
	.byte	$00
	.byte	$00
	.byte	$00
	.byte	$00
	.byte	$00
	.byte	$00
	.byte	$00
	.byte	$00
	.byte	$00
	.byte	$00
	.byte	$00
	.byte	$00
	.byte	$00
	.byte	$00
	.byte	$00
	.byte	$00
	.byte	$00
	.byte	$00
	.byte	$00
	.byte	$00
	.byte	$00
	.byte	$06
	.byte	$00
	.byte	$00
	.byte	$00
	.byte	$00
	.byte	$00
	.byte	$00
	.byte	$00
	.byte	$00
	.byte	$00
	.byte	$00
	.byte	$00
	.byte	$00
	.byte	$00
	.byte	$00
	.byte	$00
	.byte	$00
	.byte	$00
	.byte	$00
	.byte	$00
	.byte	$00
	.byte	$00
	.byte	$00
	.byte	$00
	.byte	$00
	.byte	$00
	.byte	$00
	.byte	$00
	.byte	$00
	.byte	$00
	.byte	$00
	.byte	$00
	.byte	$00
	.byte	$00
	.byte	$00
	.byte	$00
	.byte	$00
	.byte	$00
	.byte	$00
	.byte	$00
	.byte	$00
	.byte	$00
	.byte	$00
	.byte	$00
	.byte	$00
	.byte	$00
	.byte	$00
	.byte	$00
	.byte	$06
	.byte	$00
	.byte	$00
	.byte	$00
	.byte	$00
	.byte	$00
	.byte	$00
	.byte	$00
	.byte	$00
	.byte	$00
	.byte	$00
	.byte	$00
	.byte	$00
	.byte	$00
	.byte	$00
	.byte	$00
	.byte	$00
	.byte	$00
	.byte	$00
	.byte	$00
	.byte	$00
	.byte	$00
	.byte	$00
	.byte	$00
	.byte	$00
	.byte	$00
	.byte	$00
	.byte	$00
	.byte	$00
	.byte	$00
	.byte	$00
	.byte	$00
	.byte	$00
	.byte	$00
	.byte	$00
	.byte	$00
	.byte	$00
	.byte	$00
	.byte	$00
	.byte	$00
	.byte	$00
	.byte	$00
	.byte	$00
	.byte	$00
	.byte	$00
	.byte	$00
	.byte	$00
	.byte	$00
	.byte	$06
	.byte	$00
	.byte	$00
	.byte	$00
	.byte	$00
	.byte	$00
	.byte	$00
	.byte	$00
	.byte	$00
	.byte	$00
	.byte	$00
	.byte	$00
	.byte	$00
	.byte	$00
	.byte	$00
	.byte	$06
	.byte	$06
	.byte	$03
	.byte	$03
	.byte	$03
	.byte	$03
	.byte	$03
	.byte	$03
	.byte	$03
	.byte	$00
	.byte	$00
	.byte	$00
	.byte	$00
	.byte	$00
	.byte	$00
	.byte	$00
	.byte	$00
	.byte	$06
	.byte	$06
	.byte	$02
	.byte	$02
	.byte	$02
	.byte	$02
	.byte	$00
	.byte	$00
	.byte	$00
	.byte	$00
	.byte	$00
	.byte	$00
	.byte	$00
	.byte	$00
	.byte	$00
	.byte	$00
	.byte	$06
	.byte	$06
	.byte	$00
	.byte	$00
	.byte	$00
	.byte	$00
	.byte	$00
	.byte	$00
	.byte	$00
	.byte	$00
	.byte	$00
	.byte	$00
	.byte	$00
	.byte	$00
	.byte	$00
	.byte	$00
	.byte	$00
	.byte	$06
	.byte	$06
	.byte	$00
	.byte	$00
	.byte	$00
	.byte	$00
	.byte	$00
	.byte	$00
	.byte	$00
	.byte	$00
	.byte	$00
	.byte	$00
	.byte	$00
	.byte	$00
	.byte	$00
	.byte	$00
	.byte	$06
	.byte	$00
	.byte	$00
	.byte	$00
	.byte	$00
	.byte	$00
	.byte	$00
	.byte	$00
	.byte	$00
	.byte	$00
	.byte	$00
	.byte	$00
	.byte	$00
	.byte	$00
	.byte	$00
	.byte	$06
	.byte	$06
	.byte	$00
	.byte	$00
	.byte	$00
	.byte	$00
	.byte	$00
	.byte	$00
	.byte	$00
	.byte	$00
	.byte	$00
	.byte	$00
	.byte	$00
	.byte	$00
	.byte	$00
	.byte	$00
	.byte	$00
	.byte	$06
	.byte	$00
	.byte	$00
	.byte	$00
	.byte	$00
	.byte	$00
	.byte	$00
	.byte	$00
	.byte	$00
	.byte	$00
	.byte	$00
	.byte	$00
	.byte	$00
	.byte	$00
	.byte	$00
	.byte	$00
	.byte	$06
	.byte	$00
	.byte	$00
	.byte	$00
	.byte	$00
	.byte	$00
	.byte	$00
	.byte	$00
	.byte	$00
	.byte	$00
	.byte	$00
	.byte	$00
	.byte	$00
	.byte	$00
	.byte	$00
	.byte	$00
	.byte	$00
	.byte	$00
	.byte	$00
	.byte	$00
	.byte	$00
	.byte	$00
	.byte	$00
	.byte	$00
	.byte	$00
	.byte	$00
	.byte	$00
	.byte	$00
	.byte	$00
	.byte	$00
	.byte	$00
	.byte	$06
	.byte	$00
	.byte	$00
	.byte	$00
	.byte	$00
	.byte	$00
	.byte	$00
	.byte	$00
	.byte	$00
	.byte	$00
	.byte	$00
	.byte	$00
	.byte	$00
	.byte	$00
	.byte	$00
	.byte	$00
	.byte	$00
	.byte	$06
	.byte	$00
	.byte	$00
	.byte	$00
	.byte	$00
	.byte	$00
	.byte	$00
	.byte	$00
	.byte	$00
	.byte	$00
	.byte	$00
	.byte	$00
	.byte	$00
	.byte	$00
	.byte	$00
	.byte	$00
	.byte	$06
	.byte	$00
	.byte	$00
	.byte	$00
	.byte	$00
	.byte	$00
	.byte	$00
	.byte	$00
	.byte	$00
	.byte	$00
	.byte	$00
	.byte	$00
	.byte	$00
	.byte	$00
	.byte	$00
	.byte	$00
	.byte	$06
	.byte	$00
	.byte	$00
	.byte	$00
	.byte	$00
	.byte	$00
	.byte	$00
	.byte	$00
	.byte	$00
	.byte	$00
	.byte	$00
	.byte	$00
	.byte	$00
	.byte	$00
	.byte	$00
	.byte	$06
	.byte	$00
	.byte	$00
	.byte	$00
	.byte	$00
	.byte	$00
	.byte	$00
	.byte	$00
	.byte	$00
	.byte	$00
	.byte	$00
	.byte	$00
	.byte	$00
	.byte	$00
	.byte	$00
	.byte	$00
	.byte	$00
	.byte	$00
	.byte	$00
	.byte	$00
	.byte	$00
	.byte	$00
	.byte	$00
	.byte	$00
	.byte	$00
	.byte	$00
	.byte	$00
	.byte	$00
	.byte	$00
	.byte	$00
	.byte	$00
	.byte	$00
	.byte	$00
	.byte	$06
	.byte	$00
	.byte	$00
	.byte	$00
	.byte	$00
	.byte	$00
	.byte	$00
	.byte	$00
	.byte	$00
	.byte	$00
	.byte	$00
	.byte	$00
	.byte	$00
	.byte	$00
	.byte	$00
	.byte	$00
	.byte	$00
	.byte	$00
	.byte	$00
	.byte	$00
	.byte	$00
	.byte	$00
	.byte	$00
	.byte	$00
	.byte	$00
	.byte	$00
	.byte	$00
	.byte	$00
	.byte	$00
	.byte	$00
	.byte	$00
	.byte	$00
	.byte	$06
	.byte	$00
	.byte	$00
	.byte	$00
	.byte	$00
	.byte	$00
	.byte	$00
	.byte	$00
	.byte	$00
	.byte	$00
	.byte	$00
	.byte	$00
	.byte	$00
	.byte	$00
	.byte	$00
	.byte	$06
	.byte	$00
	.byte	$00
	.byte	$00
	.byte	$00
	.byte	$00
	.byte	$00
	.byte	$00
	.byte	$00
	.byte	$00
	.byte	$00
	.byte	$00
	.byte	$00
	.byte	$00
	.byte	$00
	.byte	$00
	.byte	$00
	.byte	$00
	.byte	$00
	.byte	$00
	.byte	$00
	.byte	$00
	.byte	$00
	.byte	$00
	.byte	$00
	.byte	$00
	.byte	$00
	.byte	$00
	.byte	$00
	.byte	$00
	.byte	$00
	.byte	$00
	.byte	$00
	.byte	$00
	.byte	$00
	.byte	$00
	.byte	$00
	.byte	$00
	.byte	$00
	.byte	$00
	.byte	$00
	.byte	$00
	.byte	$00
	.byte	$00
	.byte	$00
	.byte	$00
	.byte	$00
	.byte	$00
	.byte	$06
	.byte	$06
	.byte	$00
	.byte	$00
	.byte	$00
	.byte	$00
	.byte	$00
	.byte	$00
	.byte	$00
	.byte	$00
	.byte	$00
	.byte	$00
	.byte	$00
	.byte	$00
	.byte	$00
	.byte	$00
	.byte	$00
	.byte	$00
	.byte	$00
	.byte	$00
	.byte	$00
	.byte	$00
	.byte	$00
	.byte	$00
	.byte	$00
	.byte	$00
	.byte	$00
	.byte	$00
	.byte	$00
	.byte	$00
	.byte	$00
	.byte	$00
	.byte	$06
	.byte	$00
	.byte	$00
	.byte	$00
	.byte	$00
	.byte	$00
	.byte	$00
	.byte	$00
	.byte	$00
	.byte	$00
	.byte	$00
	.byte	$00
	.byte	$00
	.byte	$00
	.byte	$00
	.byte	$00
	.byte	$00
	.byte	$00
	.byte	$00
	.byte	$00
	.byte	$00
	.byte	$00
	.byte	$00
	.byte	$00
	.byte	$00
	.byte	$00
	.byte	$00
	.byte	$00
	.byte	$00
	.byte	$00
	.byte	$00
	.byte	$00
	.byte	$00
	.byte	$00
	.byte	$00
	.byte	$00
	.byte	$00
	.byte	$00
	.byte	$00
	.byte	$00
	.byte	$00
	.byte	$00
	.byte	$00
	.byte	$00
	.byte	$00
	.byte	$00
	.byte	$00
	.byte	$00
	.byte	$06
	.byte	$00
	.byte	$00
	.byte	$00
	.byte	$00
	.byte	$00
	.byte	$00
	.byte	$00
	.byte	$00
	.byte	$00
	.byte	$00
	.byte	$00
	.byte	$00
	.byte	$00
	.byte	$00
	.byte	$00
	.byte	$00
	.byte	$00
	.byte	$00
	.byte	$00
	.byte	$00
	.byte	$00
	.byte	$00
	.byte	$00
	.byte	$00
	.byte	$00
	.byte	$00
	.byte	$00
	.byte	$00
	.byte	$00
	.byte	$00
	.byte	$00
	.byte	$00
	.byte	$00
	.byte	$00
	.byte	$00
	.byte	$00
	.byte	$00
	.byte	$00
	.byte	$00
	.byte	$00
	.byte	$00
	.byte	$00
	.byte	$00
	.byte	$00
	.byte	$00
	.byte	$00
	.byte	$00
	.byte	$06
	.byte	$00
	.byte	$00
	.byte	$00
	.byte	$00
	.byte	$00
	.byte	$00
	.byte	$00
	.byte	$00
	.byte	$00
	.byte	$00
	.byte	$00
	.byte	$00
	.byte	$00
	.byte	$00
	.byte	$06
	.byte	$06
	.byte	$03
	.byte	$03
	.byte	$03
	.byte	$03
	.byte	$03
	.byte	$03
	.byte	$03
	.byte	$00
	.byte	$00
	.byte	$00
	.byte	$00
	.byte	$00
	.byte	$00
	.byte	$00
	.byte	$00
	.byte	$06
	.byte	$06
	.byte	$02
	.byte	$02
	.byte	$02
	.byte	$02
	.byte	$00
	.byte	$00
	.byte	$00
	.byte	$00
	.byte	$00
	.byte	$00
	.byte	$00
	.byte	$00
	.byte	$00
	.byte	$00
	.byte	$06
	.byte	$06
	.byte	$00
	.byte	$00
	.byte	$00
	.byte	$00
	.byte	$00
	.byte	$00
	.byte	$00
	.byte	$00
	.byte	$00
	.byte	$00
	.byte	$00
	.byte	$00
	.byte	$00
	.byte	$00
	.byte	$00
	.byte	$06
	.byte	$06
	.byte	$00
	.byte	$00
	.byte	$00
	.byte	$00
	.byte	$00
	.byte	$00
	.byte	$00
	.byte	$00
	.byte	$00
	.byte	$00
	.byte	$00
	.byte	$00
	.byte	$00
	.byte	$00
	.byte	$06
	.byte	$00
	.byte	$00
	.byte	$00
	.byte	$00
	.byte	$00
	.byte	$00
	.byte	$00
	.byte	$00
	.byte	$00
	.byte	$00
	.byte	$00
	.byte	$00
	.byte	$00
	.byte	$00
	.byte	$06
	.byte	$06
	.byte	$00
	.byte	$00
	.byte	$00
	.byte	$00
	.byte	$00
	.byte	$00
	.byte	$00
	.byte	$00
	.byte	$00
	.byte	$00
	.byte	$00
	.byte	$00
	.byte	$00
	.byte	$00
	.byte	$00
	.byte	$06
	.byte	$00
	.byte	$00
	.byte	$00
	.byte	$00
	.byte	$00
	.byte	$00
	.byte	$00
	.byte	$00
	.byte	$00
	.byte	$00
	.byte	$00
	.byte	$00
	.byte	$00
	.byte	$00
	.byte	$00
	.byte	$06
	.byte	$00
	.byte	$00
	.byte	$00
	.byte	$00
	.byte	$00
	.byte	$00
	.byte	$00
	.byte	$00
	.byte	$00
	.byte	$00
	.byte	$00
	.byte	$00
	.byte	$00
	.byte	$00
	.byte	$00
	.byte	$00
	.byte	$00
	.byte	$00
	.byte	$00
	.byte	$00
	.byte	$00
	.byte	$00
	.byte	$00
	.byte	$00
	.byte	$00
	.byte	$00
	.byte	$00
	.byte	$00
	.byte	$00
	.byte	$00
	.byte	$06
	.byte	$00
	.byte	$00
	.byte	$00
	.byte	$00
	.byte	$00
	.byte	$00
	.byte	$00
	.byte	$00
	.byte	$00
	.byte	$00
	.byte	$00
	.byte	$00
	.byte	$00
	.byte	$00
	.byte	$00
	.byte	$00
	.byte	$06
	.byte	$00
	.byte	$00
	.byte	$00
	.byte	$00
	.byte	$00
	.byte	$00
	.byte	$00
	.byte	$00
	.byte	$00
	.byte	$00
	.byte	$00
	.byte	$00
	.byte	$00
	.byte	$00
	.byte	$00
	.byte	$06
	.byte	$00
	.byte	$00
	.byte	$00
	.byte	$00
	.byte	$00
	.byte	$00
	.byte	$00
	.byte	$00
	.byte	$00
	.byte	$00
	.byte	$00
	.byte	$00
	.byte	$00
	.byte	$00
	.byte	$00
	.byte	$06
	.byte	$00
	.byte	$00
	.byte	$00
	.byte	$00
	.byte	$00
	.byte	$00
	.byte	$00
	.byte	$00
	.byte	$00
	.byte	$00
	.byte	$00
	.byte	$00
	.byte	$00
	.byte	$00
	.byte	$06
	.byte	$00
	.byte	$00
	.byte	$00
	.byte	$00
	.byte	$00
	.byte	$00
	.byte	$00
	.byte	$00
	.byte	$00
	.byte	$00
	.byte	$00
	.byte	$00
	.byte	$00
	.byte	$00
	.byte	$00
	.byte	$00
	.byte	$00
	.byte	$00
	.byte	$00
	.byte	$00
	.byte	$00
	.byte	$00
	.byte	$00
	.byte	$00
	.byte	$00
	.byte	$00
	.byte	$00
	.byte	$00
	.byte	$00
	.byte	$00
	.byte	$00
	.byte	$00
	.byte	$06
	.byte	$00
	.byte	$00
	.byte	$00
	.byte	$00
	.byte	$00
	.byte	$00
	.byte	$00
	.byte	$00
	.byte	$00
	.byte	$00
	.byte	$00
	.byte	$00
	.byte	$00
	.byte	$00
	.byte	$00
	.byte	$00
	.byte	$00
	.byte	$00
	.byte	$00
	.byte	$00
	.byte	$00
	.byte	$00
	.byte	$00
	.byte	$00
	.byte	$00
	.byte	$00
	.byte	$00
	.byte	$00
	.byte	$00
	.byte	$00
	.byte	$00
	.byte	$06
	.byte	$00
	.byte	$00
	.byte	$00
	.byte	$00
	.byte	$00
	.byte	$00
	.byte	$00
	.byte	$00
	.byte	$00
	.byte	$00
	.byte	$00
	.byte	$00
	.byte	$00
	.byte	$00
	.byte	$06
	.byte	$00
	.byte	$00
	.byte	$00
	.byte	$00
	.byte	$00
	.byte	$00
	.byte	$00
	.byte	$00
	.byte	$00
	.byte	$00
	.byte	$00
	.byte	$00
	.byte	$00
	.byte	$00
	.byte	$00
	.byte	$00
	.byte	$00
	.byte	$00
	.byte	$00
	.byte	$00
	.byte	$00
	.byte	$00
	.byte	$00
	.byte	$00
	.byte	$00
	.byte	$00
	.byte	$00
	.byte	$00
	.byte	$00
	.byte	$00
	.byte	$00
	.byte	$00
	.byte	$00
	.byte	$00
	.byte	$00
	.byte	$00
	.byte	$00
	.byte	$00
	.byte	$00
	.byte	$00
	.byte	$00
	.byte	$00
	.byte	$00
	.byte	$00
	.byte	$00
	.byte	$00
	.byte	$00
	.byte	$06
	.byte	$06
	.byte	$00
	.byte	$00
	.byte	$00
	.byte	$00
	.byte	$00
	.byte	$00
	.byte	$00
	.byte	$00
	.byte	$00
	.byte	$00
	.byte	$00
	.byte	$00
	.byte	$00
	.byte	$00
	.byte	$00
	.byte	$00
	.byte	$00
	.byte	$00
	.byte	$00
	.byte	$00
	.byte	$00
	.byte	$00
	.byte	$00
	.byte	$00
	.byte	$00
	.byte	$00
	.byte	$00
	.byte	$00
	.byte	$00
	.byte	$00
	.byte	$06
	.byte	$00
	.byte	$00
	.byte	$00
	.byte	$00
	.byte	$00
	.byte	$00
	.byte	$00
	.byte	$00
	.byte	$00
	.byte	$00
	.byte	$00
	.byte	$00
	.byte	$00
	.byte	$00
	.byte	$00
	.byte	$00
	.byte	$00
	.byte	$00
	.byte	$00
	.byte	$00
	.byte	$00
	.byte	$00
	.byte	$00
	.byte	$00
	.byte	$00
	.byte	$00
	.byte	$00
	.byte	$00
	.byte	$00
	.byte	$00
	.byte	$00
	.byte	$00
	.byte	$00
	.byte	$00
	.byte	$00
	.byte	$00
	.byte	$00
	.byte	$00
	.byte	$00
	.byte	$00
	.byte	$00
	.byte	$00
	.byte	$00
	.byte	$00
	.byte	$00
	.byte	$00
	.byte	$00
	.byte	$06
	.byte	$00
	.byte	$00
	.byte	$00
	.byte	$00
	.byte	$00
	.byte	$00
	.byte	$00
	.byte	$00
	.byte	$00
	.byte	$00
	.byte	$00
	.byte	$00
	.byte	$00
	.byte	$00
	.byte	$00
	.byte	$00
	.byte	$00
	.byte	$00
	.byte	$00
	.byte	$00
	.byte	$00
	.byte	$00
	.byte	$00
	.byte	$00
	.byte	$00
	.byte	$00
	.byte	$00
	.byte	$00
	.byte	$00
	.byte	$00
	.byte	$00
	.byte	$00
	.byte	$00
	.byte	$00
	.byte	$00
	.byte	$00
	.byte	$00
	.byte	$00
	.byte	$00
	.byte	$00
	.byte	$00
	.byte	$00
	.byte	$00
	.byte	$00
	.byte	$00
	.byte	$00
	.byte	$00
	.byte	$06
	.byte	$00
	.byte	$00
	.byte	$00
	.byte	$00
	.byte	$00
	.byte	$00
	.byte	$00
	.byte	$00
	.byte	$00
	.byte	$00
	.byte	$00
	.byte	$00
	.byte	$00
	.byte	$00
	.byte	$06
	.byte	$06
	.byte	$03
	.byte	$03
	.byte	$03
	.byte	$03
	.byte	$03
	.byte	$03
	.byte	$03
	.byte	$00
	.byte	$00
	.byte	$00
	.byte	$00
	.byte	$00
	.byte	$00
	.byte	$00
	.byte	$00
	.byte	$06
	.byte	$06
	.byte	$02
	.byte	$02
	.byte	$02
	.byte	$02
	.byte	$00
	.byte	$00
	.byte	$00
	.byte	$00
	.byte	$00
	.byte	$00
	.byte	$00
	.byte	$00
	.byte	$00
	.byte	$00
	.byte	$06
	.byte	$06
	.byte	$00
	.byte	$00
	.byte	$00
	.byte	$00
	.byte	$00
	.byte	$00
	.byte	$00
	.byte	$00
	.byte	$00
	.byte	$00
	.byte	$00
	.byte	$00
	.byte	$00
	.byte	$00
	.byte	$00
	.byte	$06
	.byte	$06
	.byte	$00
	.byte	$00
	.byte	$00
	.byte	$00
	.byte	$00
	.byte	$00
	.byte	$00
	.byte	$00
	.byte	$00
	.byte	$00
	.byte	$00
	.byte	$00
	.byte	$00
	.byte	$00
	.byte	$06
	.byte	$00
	.byte	$00
	.byte	$00
	.byte	$00
	.byte	$00
	.byte	$00
	.byte	$00
	.byte	$00
	.byte	$00
	.byte	$00
	.byte	$00
	.byte	$00
	.byte	$00
	.byte	$00
	.byte	$06
	.byte	$06
	.byte	$00
	.byte	$00
	.byte	$00
	.byte	$00
	.byte	$00
	.byte	$00
	.byte	$00
	.byte	$00
	.byte	$00
	.byte	$00
	.byte	$00
	.byte	$00
	.byte	$00
	.byte	$00
	.byte	$00
	.byte	$06
	.byte	$00
	.byte	$00
	.byte	$00
	.byte	$00
	.byte	$00
	.byte	$00
	.byte	$00
	.byte	$00
	.byte	$00
	.byte	$00
	.byte	$00
	.byte	$00
	.byte	$00
	.byte	$00
	.byte	$00
	.byte	$06
	.byte	$00
	.byte	$00
	.byte	$00
	.byte	$00
	.byte	$00
	.byte	$00
	.byte	$00
	.byte	$00
	.byte	$00
	.byte	$00
	.byte	$00
	.byte	$00
	.byte	$00
	.byte	$00
	.byte	$00
	.byte	$00
	.byte	$00
	.byte	$00
	.byte	$00
	.byte	$00
	.byte	$00
	.byte	$00
	.byte	$00
	.byte	$00
	.byte	$00
	.byte	$00
	.byte	$00
	.byte	$00
	.byte	$00
	.byte	$00
	.byte	$06
	.byte	$00
	.byte	$00
	.byte	$00
	.byte	$00
	.byte	$00
	.byte	$00
	.byte	$00
	.byte	$00
	.byte	$00
	.byte	$00
	.byte	$00
	.byte	$00
	.byte	$00
	.byte	$00
	.byte	$00
	.byte	$00
	.byte	$06
	.byte	$00
	.byte	$00
	.byte	$00
	.byte	$00
	.byte	$00
	.byte	$00
	.byte	$00
	.byte	$00
	.byte	$00
	.byte	$00
	.byte	$00
	.byte	$00
	.byte	$00
	.byte	$00
	.byte	$00
	.byte	$06
	.byte	$00
	.byte	$00
	.byte	$00
	.byte	$00
	.byte	$00
	.byte	$00
	.byte	$00
	.byte	$00
	.byte	$00
	.byte	$00
	.byte	$00
	.byte	$00
	.byte	$00
	.byte	$00
	.byte	$00
	.byte	$06
	.byte	$00
	.byte	$00
	.byte	$00
	.byte	$00
	.byte	$00
	.byte	$00
	.byte	$00
	.byte	$00
	.byte	$00
	.byte	$00
	.byte	$00
	.byte	$00
	.byte	$00
	.byte	$00
	.byte	$06
	.byte	$00
	.byte	$00
	.byte	$00
	.byte	$00
	.byte	$00
	.byte	$00
	.byte	$00
	.byte	$00
	.byte	$00
	.byte	$00
	.byte	$00
	.byte	$00
	.byte	$00
	.byte	$00
	.byte	$00
	.byte	$00
	.byte	$00
	.byte	$00
	.byte	$00
	.byte	$00
	.byte	$00
	.byte	$00
	.byte	$00
	.byte	$00
	.byte	$00
	.byte	$00
	.byte	$00
	.byte	$00
	.byte	$00
	.byte	$00
	.byte	$00
	.byte	$00
	.byte	$06
	.byte	$00
	.byte	$00
	.byte	$00
	.byte	$00
	.byte	$00
	.byte	$00
	.byte	$00
	.byte	$00
	.byte	$00
	.byte	$00
	.byte	$00
	.byte	$00
	.byte	$00
	.byte	$00
	.byte	$00
	.byte	$00
	.byte	$00
	.byte	$00
	.byte	$00
	.byte	$00
	.byte	$00
	.byte	$00
	.byte	$00
	.byte	$00
	.byte	$00
	.byte	$00
	.byte	$00
	.byte	$00
	.byte	$00
	.byte	$00
	.byte	$00
	.byte	$06
	.byte	$00
	.byte	$00
	.byte	$00
	.byte	$00
	.byte	$00
	.byte	$00
	.byte	$00
	.byte	$00
	.byte	$00
	.byte	$00
	.byte	$00
	.byte	$00
	.byte	$00
	.byte	$00
	.byte	$06
	.byte	$00
	.byte	$00
	.byte	$00
	.byte	$00
	.byte	$00
	.byte	$00
	.byte	$00
	.byte	$00
	.byte	$00
	.byte	$00
	.byte	$00
	.byte	$00
	.byte	$00
	.byte	$00
	.byte	$00
	.byte	$00
	.byte	$00
	.byte	$00
	.byte	$00
	.byte	$00
	.byte	$00
	.byte	$00
	.byte	$00
	.byte	$00
	.byte	$00
	.byte	$00
	.byte	$00
	.byte	$00
	.byte	$00
	.byte	$00
	.byte	$00
	.byte	$00
	.byte	$00
	.byte	$00
	.byte	$00
	.byte	$00
	.byte	$00
	.byte	$00
	.byte	$00
	.byte	$00
	.byte	$00
	.byte	$00
	.byte	$00
	.byte	$00
	.byte	$00
	.byte	$00
	.byte	$00
	.byte	$06
	.byte	$06
	.byte	$00
	.byte	$00
	.byte	$00
	.byte	$00
	.byte	$00
	.byte	$00
	.byte	$00
	.byte	$00
	.byte	$00
	.byte	$00
	.byte	$00
	.byte	$00
	.byte	$00
	.byte	$00
	.byte	$00
	.byte	$00
	.byte	$00
	.byte	$00
	.byte	$00
	.byte	$00
	.byte	$00
	.byte	$00
	.byte	$00
	.byte	$00
	.byte	$00
	.byte	$00
	.byte	$00
	.byte	$00
	.byte	$00
	.byte	$00
	.byte	$06
	.byte	$00
	.byte	$00
	.byte	$00
	.byte	$00
	.byte	$00
	.byte	$00
	.byte	$00
	.byte	$00
	.byte	$00
	.byte	$00
	.byte	$00
	.byte	$00
	.byte	$00
	.byte	$00
	.byte	$00
	.byte	$00
	.byte	$00
	.byte	$00
	.byte	$00
	.byte	$00
	.byte	$00
	.byte	$00
	.byte	$00
	.byte	$00
	.byte	$00
	.byte	$00
	.byte	$00
	.byte	$00
	.byte	$00
	.byte	$00
	.byte	$00
	.byte	$00
	.byte	$00
	.byte	$00
	.byte	$00
	.byte	$00
	.byte	$00
	.byte	$00
	.byte	$00
	.byte	$00
	.byte	$00
	.byte	$00
	.byte	$00
	.byte	$00
	.byte	$00
	.byte	$00
	.byte	$00
	.byte	$06
	.byte	$00
	.byte	$00
	.byte	$00
	.byte	$00
	.byte	$00
	.byte	$00
	.byte	$00
	.byte	$00
	.byte	$00
	.byte	$00
	.byte	$00
	.byte	$00
	.byte	$00
	.byte	$00
	.byte	$00
	.byte	$00
	.byte	$00
	.byte	$00
	.byte	$00
	.byte	$00
	.byte	$00
	.byte	$00
	.byte	$00
	.byte	$00
	.byte	$00
	.byte	$00
	.byte	$00
	.byte	$00
	.byte	$00
	.byte	$00
	.byte	$00
	.byte	$00
	.byte	$00
	.byte	$00
	.byte	$00
	.byte	$00
	.byte	$00
	.byte	$00
	.byte	$00
	.byte	$00
	.byte	$00
	.byte	$00
	.byte	$00
	.byte	$00
	.byte	$00
	.byte	$00
	.byte	$00
	.byte	$06
	.byte	$00
	.byte	$00
	.byte	$00
	.byte	$00
	.byte	$00
	.byte	$00
	.byte	$00
	.byte	$00
	.byte	$00
	.byte	$00
	.byte	$00
	.byte	$00
	.byte	$00
	.byte	$00
	.byte	$06
	.byte	$06
	.byte	$03
	.byte	$03
	.byte	$03
	.byte	$03
	.byte	$03
	.byte	$03
	.byte	$03
	.byte	$00
	.byte	$00
	.byte	$00
	.byte	$00
	.byte	$00
	.byte	$00
	.byte	$00
	.byte	$00
	.byte	$06
	.byte	$06
	.byte	$02
	.byte	$02
	.byte	$02
	.byte	$02
	.byte	$00
	.byte	$00
	.byte	$00
	.byte	$00
	.byte	$00
	.byte	$00
	.byte	$00
	.byte	$00
	.byte	$00
	.byte	$00
	.byte	$06
	.byte	$06
	.byte	$00
	.byte	$00
	.byte	$00
	.byte	$00
	.byte	$00
	.byte	$00
	.byte	$00
	.byte	$00
	.byte	$00
	.byte	$00
	.byte	$00
	.byte	$00
	.byte	$00
	.byte	$00
	.byte	$00
	.byte	$06
	.byte	$06
	.byte	$00
	.byte	$00
	.byte	$00
	.byte	$00
	.byte	$00
	.byte	$00
	.byte	$00
	.byte	$00
	.byte	$00
	.byte	$00
	.byte	$00
	.byte	$00
	.byte	$00
	.byte	$00
	.byte	$06
	.byte	$00
	.byte	$00
	.byte	$00
	.byte	$00
	.byte	$00
	.byte	$00
	.byte	$00
	.byte	$00
	.byte	$00
	.byte	$00
	.byte	$00
	.byte	$00
	.byte	$00
	.byte	$00
	.byte	$06
	.byte	$06
	.byte	$00
	.byte	$00
	.byte	$00
	.byte	$00
	.byte	$00
	.byte	$00
	.byte	$00
	.byte	$00
	.byte	$00
	.byte	$00
	.byte	$00
	.byte	$00
	.byte	$00
	.byte	$00
	.byte	$00
	.byte	$06
	.byte	$00
	.byte	$00
	.byte	$00
	.byte	$00
	.byte	$00
	.byte	$00
	.byte	$00
	.byte	$00
	.byte	$00
	.byte	$00
	.byte	$00
	.byte	$00
	.byte	$00
	.byte	$00
	.byte	$00
	.byte	$06
	.byte	$00
	.byte	$00
	.byte	$00
	.byte	$00
	.byte	$00
	.byte	$00
	.byte	$00
	.byte	$00
	.byte	$00
	.byte	$00
	.byte	$00
	.byte	$00
	.byte	$00
	.byte	$00
	.byte	$00
	.byte	$00
	.byte	$00
	.byte	$00
	.byte	$00
	.byte	$00
	.byte	$00
	.byte	$00
	.byte	$00
	.byte	$00
	.byte	$00
	.byte	$00
	.byte	$00
	.byte	$00
	.byte	$00
	.byte	$00
	.byte	$06
	.byte	$00
	.byte	$00
	.byte	$00
	.byte	$00
	.byte	$00
	.byte	$00
	.byte	$00
	.byte	$00
	.byte	$00
	.byte	$00
	.byte	$00
	.byte	$00
	.byte	$00
	.byte	$00
	.byte	$00
	.byte	$00
	.byte	$06
	.byte	$00
	.byte	$00
	.byte	$00
	.byte	$00
	.byte	$00
	.byte	$00
	.byte	$00
	.byte	$00
	.byte	$00
	.byte	$00
	.byte	$00
	.byte	$00
	.byte	$00
	.byte	$00
	.byte	$00
	.byte	$06
	.byte	$00
	.byte	$00
	.byte	$00
	.byte	$00
	.byte	$00
	.byte	$00
	.byte	$00
	.byte	$00
	.byte	$00
	.byte	$00
	.byte	$00
	.byte	$00
	.byte	$00
	.byte	$00
	.byte	$00
	.byte	$06
	.byte	$00
	.byte	$00
	.byte	$00
	.byte	$00
	.byte	$00
	.byte	$00
	.byte	$00
	.byte	$00
	.byte	$00
	.byte	$00
	.byte	$00
	.byte	$00
	.byte	$00
	.byte	$00
	.byte	$06
	.byte	$00
	.byte	$00
	.byte	$00
	.byte	$00
	.byte	$00
	.byte	$00
	.byte	$00
	.byte	$00
	.byte	$00
	.byte	$00
	.byte	$00
	.byte	$00
	.byte	$00
	.byte	$00
	.byte	$00
	.byte	$00
	.byte	$00
	.byte	$00
	.byte	$00
	.byte	$00
	.byte	$00
	.byte	$00
	.byte	$00
	.byte	$00
	.byte	$00
	.byte	$00
	.byte	$00
	.byte	$00
	.byte	$00
	.byte	$00
	.byte	$00
	.byte	$00
	.byte	$06
	.byte	$00
	.byte	$00
	.byte	$00
	.byte	$00
	.byte	$00
	.byte	$00
	.byte	$00
	.byte	$00
	.byte	$00
	.byte	$00
	.byte	$00
	.byte	$00
	.byte	$00
	.byte	$00
	.byte	$00
	.byte	$00
	.byte	$00
	.byte	$00
	.byte	$00
	.byte	$00
	.byte	$00
	.byte	$00
	.byte	$00
	.byte	$00
	.byte	$00
	.byte	$00
	.byte	$00
	.byte	$00
	.byte	$00
	.byte	$00
	.byte	$00
	.byte	$06
	.byte	$00
	.byte	$00
	.byte	$00
	.byte	$00
	.byte	$00
	.byte	$00
	.byte	$00
	.byte	$00
	.byte	$00
	.byte	$00
	.byte	$00
	.byte	$00
	.byte	$00
	.byte	$00
	.byte	$06
	.byte	$00
	.byte	$00
	.byte	$00
	.byte	$00
	.byte	$00
	.byte	$00
	.byte	$00
	.byte	$00
	.byte	$00
	.byte	$00
	.byte	$00
	.byte	$00
	.byte	$00
	.byte	$00
	.byte	$00
	.byte	$00
	.byte	$00
	.byte	$00
	.byte	$00
	.byte	$00
	.byte	$00
	.byte	$00
	.byte	$00
	.byte	$00
	.byte	$00
	.byte	$00
	.byte	$00
	.byte	$00
	.byte	$00
	.byte	$00
	.byte	$00
	.byte	$00
	.byte	$00
	.byte	$00
	.byte	$00
	.byte	$00
	.byte	$00
	.byte	$00
	.byte	$00
	.byte	$00
	.byte	$00
	.byte	$00
	.byte	$00
	.byte	$00
	.byte	$00
	.byte	$00
	.byte	$00
	.byte	$06
	.byte	$06
	.byte	$00
	.byte	$00
	.byte	$00
	.byte	$00
	.byte	$00
	.byte	$00
	.byte	$00
	.byte	$00
	.byte	$00
	.byte	$00
	.byte	$00
	.byte	$00
	.byte	$00
	.byte	$00
	.byte	$00
	.byte	$00
	.byte	$00
	.byte	$00
	.byte	$00
	.byte	$00
	.byte	$00
	.byte	$00
	.byte	$00
	.byte	$00
	.byte	$00
	.byte	$00
	.byte	$00
	.byte	$00
	.byte	$00
	.byte	$00
	.byte	$06
	.byte	$00
	.byte	$00
	.byte	$00
	.byte	$00
	.byte	$00
	.byte	$00
	.byte	$00
	.byte	$00
	.byte	$00
	.byte	$00
	.byte	$00
	.byte	$00
	.byte	$00
	.byte	$00
	.byte	$00
	.byte	$00
	.byte	$00
	.byte	$00
	.byte	$00
	.byte	$00
	.byte	$00
	.byte	$00
	.byte	$00
	.byte	$00
	.byte	$00
	.byte	$00
	.byte	$00
	.byte	$00
	.byte	$00
	.byte	$00
	.byte	$00
	.byte	$00
	.byte	$00
	.byte	$00
	.byte	$00
	.byte	$00
	.byte	$00
	.byte	$00
	.byte	$00
	.byte	$00
	.byte	$00
	.byte	$00
	.byte	$00
	.byte	$00
	.byte	$00
	.byte	$00
	.byte	$00
	.byte	$06
	.byte	$00
	.byte	$00
	.byte	$00
	.byte	$00
	.byte	$00
	.byte	$00
	.byte	$00
	.byte	$00
	.byte	$00
	.byte	$00
	.byte	$00
	.byte	$00
	.byte	$00
	.byte	$00
	.byte	$00
	.byte	$00
	.byte	$00
	.byte	$00
	.byte	$00
	.byte	$00
	.byte	$00
	.byte	$00
	.byte	$00
	.byte	$00
	.byte	$00
	.byte	$00
	.byte	$00
	.byte	$00
	.byte	$00
	.byte	$00
	.byte	$00
	.byte	$00
	.byte	$00
	.byte	$00
	.byte	$00
	.byte	$00
	.byte	$00
	.byte	$00
	.byte	$00
	.byte	$00
	.byte	$00
	.byte	$00
	.byte	$00
	.byte	$00
	.byte	$00
	.byte	$00
	.byte	$00
	.byte	$06
	.byte	$00
	.byte	$00
	.byte	$00
	.byte	$00
	.byte	$00
	.byte	$00
	.byte	$00
	.byte	$00
	.byte	$00
	.byte	$00
	.byte	$00
	.byte	$00
	.byte	$00
	.byte	$00
	.byte	$06
	.byte	$06
	.byte	$03
	.byte	$03
	.byte	$03
	.byte	$03
	.byte	$03
	.byte	$03
	.byte	$03
	.byte	$00
	.byte	$00
	.byte	$00
	.byte	$00
	.byte	$00
	.byte	$00
	.byte	$00
	.byte	$00
	.byte	$06
	.byte	$06
	.byte	$02
	.byte	$02
	.byte	$02
	.byte	$02
	.byte	$00
	.byte	$00
	.byte	$00
	.byte	$00
	.byte	$00
	.byte	$00
	.byte	$00
	.byte	$00
	.byte	$00
	.byte	$00
	.byte	$06
	.byte	$06
	.byte	$00
	.byte	$00
	.byte	$00
	.byte	$00
	.byte	$00
	.byte	$00
	.byte	$00
	.byte	$00
	.byte	$00
	.byte	$00
	.byte	$00
	.byte	$00
	.byte	$00
	.byte	$00
	.byte	$00
	.byte	$06
	.byte	$06
	.byte	$00
	.byte	$00
	.byte	$00
	.byte	$00
	.byte	$00
	.byte	$00
	.byte	$00
	.byte	$00
	.byte	$00
	.byte	$00
	.byte	$00
	.byte	$00
	.byte	$00
	.byte	$00
	.byte	$06
	.byte	$00
	.byte	$00
	.byte	$00
	.byte	$00
	.byte	$00
	.byte	$00
	.byte	$00
	.byte	$00
	.byte	$00
	.byte	$00
	.byte	$00
	.byte	$00
	.byte	$00
	.byte	$00
	.byte	$06
	.byte	$06
	.byte	$00
	.byte	$00
	.byte	$00
	.byte	$00
	.byte	$00
	.byte	$00
	.byte	$00
	.byte	$00
	.byte	$00
	.byte	$00
	.byte	$00
	.byte	$00
	.byte	$00
	.byte	$00
	.byte	$00
	.byte	$06
	.byte	$00
	.byte	$00
	.byte	$00
	.byte	$00
	.byte	$00
	.byte	$00
	.byte	$00
	.byte	$00
	.byte	$00
	.byte	$00
	.byte	$00
	.byte	$00
	.byte	$00
	.byte	$00
	.byte	$00
	.byte	$06
	.byte	$00
	.byte	$00
	.byte	$00
	.byte	$00
	.byte	$00
	.byte	$00
	.byte	$00
	.byte	$00
	.byte	$00
	.byte	$00
	.byte	$00
	.byte	$00
	.byte	$00
	.byte	$00
	.byte	$00
	.byte	$00
	.byte	$00
	.byte	$00
	.byte	$00
	.byte	$00
	.byte	$00
	.byte	$00
	.byte	$00
	.byte	$00
	.byte	$00
	.byte	$00
	.byte	$00
	.byte	$00
	.byte	$00
	.byte	$00
	.byte	$06
	.byte	$00
	.byte	$00
	.byte	$00
	.byte	$00
	.byte	$00
	.byte	$00
	.byte	$00
	.byte	$00
	.byte	$00
	.byte	$00
	.byte	$00
	.byte	$00
	.byte	$00
	.byte	$00
	.byte	$00
	.byte	$00
	.byte	$06
	.byte	$00
	.byte	$00
	.byte	$00
	.byte	$00
	.byte	$00
	.byte	$00
	.byte	$00
	.byte	$00
	.byte	$00
	.byte	$00
	.byte	$00
	.byte	$00
	.byte	$00
	.byte	$00
	.byte	$00
	.byte	$06
	.byte	$00
	.byte	$00
	.byte	$00
	.byte	$00
	.byte	$00
	.byte	$00
	.byte	$00
	.byte	$00
	.byte	$00
	.byte	$00
	.byte	$00
	.byte	$00
	.byte	$00
	.byte	$00
	.byte	$00
	.byte	$06
	.byte	$00
	.byte	$00
	.byte	$00
	.byte	$00
	.byte	$00
	.byte	$00
	.byte	$00
	.byte	$00
	.byte	$00
	.byte	$00
	.byte	$00
	.byte	$00
	.byte	$00
	.byte	$00
	.byte	$06
	.byte	$00
	.byte	$00
	.byte	$00
	.byte	$00
	.byte	$00
	.byte	$00
	.byte	$00
	.byte	$00
	.byte	$00
	.byte	$00
	.byte	$00
	.byte	$00
	.byte	$00
	.byte	$00
	.byte	$00
	.byte	$00
	.byte	$00
	.byte	$00
	.byte	$00
	.byte	$00
	.byte	$00
	.byte	$00
	.byte	$00
	.byte	$00
	.byte	$00
	.byte	$00
	.byte	$00
	.byte	$00
	.byte	$00
	.byte	$00
	.byte	$00
	.byte	$00
	.byte	$06
	.byte	$00
	.byte	$00
	.byte	$00
	.byte	$00
	.byte	$00
	.byte	$00
	.byte	$00
	.byte	$00
	.byte	$00
	.byte	$00
	.byte	$00
	.byte	$00
	.byte	$00
	.byte	$00
	.byte	$00
	.byte	$00
	.byte	$00
	.byte	$00
	.byte	$00
	.byte	$00
	.byte	$00
	.byte	$00
	.byte	$00
	.byte	$00
	.byte	$00
	.byte	$00
	.byte	$00
	.byte	$00
	.byte	$00
	.byte	$00
	.byte	$00
	.byte	$06
	.byte	$00
	.byte	$00
	.byte	$00
	.byte	$00
	.byte	$00
	.byte	$00
	.byte	$00
	.byte	$00
	.byte	$00
	.byte	$00
	.byte	$00
	.byte	$00
	.byte	$00
	.byte	$00
	.byte	$06
	.byte	$00
	.byte	$00
	.byte	$00
	.byte	$00
	.byte	$00
	.byte	$00
	.byte	$00
	.byte	$00
	.byte	$00
	.byte	$00
	.byte	$00
	.byte	$00
	.byte	$00
	.byte	$00
	.byte	$00
	.byte	$00
	.byte	$00
	.byte	$00
	.byte	$00
	.byte	$00
	.byte	$00
	.byte	$00
	.byte	$00
	.byte	$00
	.byte	$00
	.byte	$00
	.byte	$00
	.byte	$00
	.byte	$00
	.byte	$00
	.byte	$00
	.byte	$00
	.byte	$00
	.byte	$00
	.byte	$00
	.byte	$00
	.byte	$00
	.byte	$00
	.byte	$00
	.byte	$00
	.byte	$00
	.byte	$00
	.byte	$00
	.byte	$00
	.byte	$00
	.byte	$00
	.byte	$00
	.byte	$06
	.byte	$06
	.byte	$00
	.byte	$00
	.byte	$00
	.byte	$00
	.byte	$00
	.byte	$00
	.byte	$00
	.byte	$00
	.byte	$00
	.byte	$00
	.byte	$00
	.byte	$00
	.byte	$00
	.byte	$00
	.byte	$00
	.byte	$00
	.byte	$00
	.byte	$00
	.byte	$00
	.byte	$00
	.byte	$00
	.byte	$00
	.byte	$00
	.byte	$00
	.byte	$00
	.byte	$00
	.byte	$00
	.byte	$00
	.byte	$00
	.byte	$00
	.byte	$06
	.byte	$00
	.byte	$00
	.byte	$00
	.byte	$00
	.byte	$00
	.byte	$00
	.byte	$00
	.byte	$00
	.byte	$00
	.byte	$00
	.byte	$00
	.byte	$00
	.byte	$00
	.byte	$00
	.byte	$00
	.byte	$00
	.byte	$00
	.byte	$00
	.byte	$00
	.byte	$00
	.byte	$00
	.byte	$00
	.byte	$00
	.byte	$00
	.byte	$00
	.byte	$00
	.byte	$00
	.byte	$00
	.byte	$00
	.byte	$00
	.byte	$00
	.byte	$00
	.byte	$00
	.byte	$00
	.byte	$00
	.byte	$00
	.byte	$00
	.byte	$00
	.byte	$00
	.byte	$00
	.byte	$00
	.byte	$00
	.byte	$00
	.byte	$00
	.byte	$00
	.byte	$00
	.byte	$00
	.byte	$06
	.byte	$00
	.byte	$00
	.byte	$00
	.byte	$00
	.byte	$00
	.byte	$00
	.byte	$00
	.byte	$00
	.byte	$00
	.byte	$00
	.byte	$00
	.byte	$00
	.byte	$00
	.byte	$00
	.byte	$00
	.byte	$00
	.byte	$00
	.byte	$00
	.byte	$00
	.byte	$00
	.byte	$00
	.byte	$00
	.byte	$00
	.byte	$00
	.byte	$00
	.byte	$00
	.byte	$00
	.byte	$00
	.byte	$00
	.byte	$00
	.byte	$00
	.byte	$00
	.byte	$00
	.byte	$00
	.byte	$00
	.byte	$00
	.byte	$00
	.byte	$00
	.byte	$00
	.byte	$00
	.byte	$00
	.byte	$00
	.byte	$00
	.byte	$00
	.byte	$00
	.byte	$00
	.byte	$00
	.byte	$06
	.byte	$00
	.byte	$00
	.byte	$00
	.byte	$00
	.byte	$00
	.byte	$00
	.byte	$00
	.byte	$00
	.byte	$00
	.byte	$00
	.byte	$00
	.byte	$00
	.byte	$00
	.byte	$00
	.byte	$06
	.byte	$06
	.byte	$03
	.byte	$03
	.byte	$03
	.byte	$03
	.byte	$03
	.byte	$03
	.byte	$03
	.byte	$00
	.byte	$00
	.byte	$00
	.byte	$00
	.byte	$00
	.byte	$00
	.byte	$00
	.byte	$00
	.byte	$06
	.byte	$06
	.byte	$02
	.byte	$02
	.byte	$02
	.byte	$02
	.byte	$00
	.byte	$00
	.byte	$00
	.byte	$00
	.byte	$00
	.byte	$00
	.byte	$00
	.byte	$00
	.byte	$00
	.byte	$00
	.byte	$06
	.byte	$06
	.byte	$00
	.byte	$00
	.byte	$00
	.byte	$00
	.byte	$00
	.byte	$00
	.byte	$00
	.byte	$00
	.byte	$00
	.byte	$00
	.byte	$00
	.byte	$00
	.byte	$00
	.byte	$00
	.byte	$00
	.byte	$06
	.byte	$06
	.byte	$00
	.byte	$00
	.byte	$00
	.byte	$00
	.byte	$00
	.byte	$00
	.byte	$00
	.byte	$00
	.byte	$00
	.byte	$00
	.byte	$00
	.byte	$00
	.byte	$00
	.byte	$00
	.byte	$06
	.byte	$00
	.byte	$00
	.byte	$00
	.byte	$00
	.byte	$00
	.byte	$00
	.byte	$00
	.byte	$00
	.byte	$00
	.byte	$00
	.byte	$00
	.byte	$00
	.byte	$00
	.byte	$00
	.byte	$06
	.byte	$06
	.byte	$00
	.byte	$00
	.byte	$00
	.byte	$00
	.byte	$00
	.byte	$00
	.byte	$00
	.byte	$00
	.byte	$00
	.byte	$00
	.byte	$00
	.byte	$00
	.byte	$00
	.byte	$00
	.byte	$00
	.byte	$06
	.byte	$00
	.byte	$00
	.byte	$00
	.byte	$00
	.byte	$00
	.byte	$00
	.byte	$00
	.byte	$00
	.byte	$00
	.byte	$00
	.byte	$00
	.byte	$00
	.byte	$00
	.byte	$00
	.byte	$00
	.byte	$06
	.byte	$00
	.byte	$00
	.byte	$00
	.byte	$00
	.byte	$00
	.byte	$00
	.byte	$00
	.byte	$00
	.byte	$00
	.byte	$00
	.byte	$00
	.byte	$00
	.byte	$00
	.byte	$00
	.byte	$00
	.byte	$00
	.byte	$00
	.byte	$00
	.byte	$00
	.byte	$00
	.byte	$00
	.byte	$00
	.byte	$00
	.byte	$00
	.byte	$00
	.byte	$00
	.byte	$00
	.byte	$00
	.byte	$00
	.byte	$00
	.byte	$06
	.byte	$00
	.byte	$00
	.byte	$00
	.byte	$00
	.byte	$00
	.byte	$00
	.byte	$00
	.byte	$00
	.byte	$00
	.byte	$00
	.byte	$00
	.byte	$00
	.byte	$00
	.byte	$00
	.byte	$00
	.byte	$00
	.byte	$06
	.byte	$00
	.byte	$00
	.byte	$00
	.byte	$00
	.byte	$00
	.byte	$00
	.byte	$00
	.byte	$00
	.byte	$00
	.byte	$00
	.byte	$00
	.byte	$00
	.byte	$00
	.byte	$00
	.byte	$00
	.byte	$06
	.byte	$00
	.byte	$00
	.byte	$00
	.byte	$00
	.byte	$00
	.byte	$00
	.byte	$00
	.byte	$00
	.byte	$00
	.byte	$00
	.byte	$00
	.byte	$00
	.byte	$00
	.byte	$00
	.byte	$00
	.byte	$06
	.byte	$00
	.byte	$00
	.byte	$00
	.byte	$00
	.byte	$00
	.byte	$00
	.byte	$00
	.byte	$00
	.byte	$00
	.byte	$00
	.byte	$00
	.byte	$00
	.byte	$00
	.byte	$00
	.byte	$06
	.byte	$00
	.byte	$00
	.byte	$00
	.byte	$00
	.byte	$00
	.byte	$00
	.byte	$00
	.byte	$00
	.byte	$00
	.byte	$00
	.byte	$00
	.byte	$00
	.byte	$00
	.byte	$00
	.byte	$00
	.byte	$00
	.byte	$00
	.byte	$00
	.byte	$00
	.byte	$00
	.byte	$00
	.byte	$00
	.byte	$00
	.byte	$00
	.byte	$00
	.byte	$00
	.byte	$00
	.byte	$00
	.byte	$00
	.byte	$00
	.byte	$00
	.byte	$00
	.byte	$06
	.byte	$00
	.byte	$00
	.byte	$00
	.byte	$00
	.byte	$00
	.byte	$00
	.byte	$00
	.byte	$00
	.byte	$00
	.byte	$00
	.byte	$00
	.byte	$00
	.byte	$00
	.byte	$00
	.byte	$00
	.byte	$00
	.byte	$00
	.byte	$00
	.byte	$00
	.byte	$00
	.byte	$00
	.byte	$00
	.byte	$00
	.byte	$00
	.byte	$00
	.byte	$00
	.byte	$00
	.byte	$00
	.byte	$00
	.byte	$00
	.byte	$00
	.byte	$06
	.byte	$00
	.byte	$00
	.byte	$00
	.byte	$00
	.byte	$00
	.byte	$00
	.byte	$00
	.byte	$00
	.byte	$00
	.byte	$00
	.byte	$00
	.byte	$00
	.byte	$00
	.byte	$00
	.byte	$06
	.byte	$00
	.byte	$00
	.byte	$00
	.byte	$00
	.byte	$00
	.byte	$00
	.byte	$00
	.byte	$00
	.byte	$00
	.byte	$00
	.byte	$00
	.byte	$00
	.byte	$00
	.byte	$00
	.byte	$00
	.byte	$00
	.byte	$00
	.byte	$00
	.byte	$00
	.byte	$00
	.byte	$00
	.byte	$00
	.byte	$00
	.byte	$00
	.byte	$00
	.byte	$00
	.byte	$00
	.byte	$00
	.byte	$00
	.byte	$00
	.byte	$00
	.byte	$00
	.byte	$00
	.byte	$00
	.byte	$00
	.byte	$00
	.byte	$00
	.byte	$00
	.byte	$00
	.byte	$00
	.byte	$00
	.byte	$00
	.byte	$00
	.byte	$00
	.byte	$00
	.byte	$00
	.byte	$00
	.byte	$06
	.byte	$06
	.byte	$00
	.byte	$00
	.byte	$00
	.byte	$00
	.byte	$00
	.byte	$00
	.byte	$00
	.byte	$00
	.byte	$00
	.byte	$00
	.byte	$00
	.byte	$00
	.byte	$00
	.byte	$00
	.byte	$00
	.byte	$00
	.byte	$00
	.byte	$00
	.byte	$00
	.byte	$00
	.byte	$00
	.byte	$00
	.byte	$00
	.byte	$00
	.byte	$00
	.byte	$00
	.byte	$00
	.byte	$00
	.byte	$00
	.byte	$00
	.byte	$06
	.byte	$00
	.byte	$00
	.byte	$00
	.byte	$00
	.byte	$00
	.byte	$00
	.byte	$00
	.byte	$00
	.byte	$00
	.byte	$00
	.byte	$00
	.byte	$00
	.byte	$00
	.byte	$00
	.byte	$00
	.byte	$00
	.byte	$00
	.byte	$00
	.byte	$00
	.byte	$00
	.byte	$00
	.byte	$00
	.byte	$00
	.byte	$00
	.byte	$00
	.byte	$00
	.byte	$00
	.byte	$00
	.byte	$00
	.byte	$00
	.byte	$00
	.byte	$00
	.byte	$00
	.byte	$00
	.byte	$00
	.byte	$00
	.byte	$00
	.byte	$00
	.byte	$00
	.byte	$00
	.byte	$00
	.byte	$00
	.byte	$00
	.byte	$00
	.byte	$00
	.byte	$00
	.byte	$00
	.byte	$06
	.byte	$00
	.byte	$00
	.byte	$00
	.byte	$00
	.byte	$00
	.byte	$00
	.byte	$00
	.byte	$00
	.byte	$00
	.byte	$00
	.byte	$00
	.byte	$00
	.byte	$00
	.byte	$00
	.byte	$00
	.byte	$00
	.byte	$00
	.byte	$00
	.byte	$00
	.byte	$00
	.byte	$00
	.byte	$00
	.byte	$00
	.byte	$00
	.byte	$00
	.byte	$00
	.byte	$00
	.byte	$00
	.byte	$00
	.byte	$00
	.byte	$00
	.byte	$00
	.byte	$00
	.byte	$00
	.byte	$00
	.byte	$00
	.byte	$00
	.byte	$00
	.byte	$00
	.byte	$00
	.byte	$00
	.byte	$00
	.byte	$00
	.byte	$00
	.byte	$00
	.byte	$00
	.byte	$00
	.byte	$06
	.byte	$00
	.byte	$00
	.byte	$00
	.byte	$00
	.byte	$00
	.byte	$00
	.byte	$00
	.byte	$00
	.byte	$00
	.byte	$00
	.byte	$00
	.byte	$00
	.byte	$00
	.byte	$00
	.byte	$06
	.byte	$06
	.byte	$03
	.byte	$03
	.byte	$03
	.byte	$03
	.byte	$03
	.byte	$03
	.byte	$03
	.byte	$00
	.byte	$00
	.byte	$00
	.byte	$00
	.byte	$00
	.byte	$00
	.byte	$00
	.byte	$00
	.byte	$06
	.byte	$06
	.byte	$02
	.byte	$02
	.byte	$02
	.byte	$02
	.byte	$00
	.byte	$00
	.byte	$00
	.byte	$00
	.byte	$00
	.byte	$00
	.byte	$00
	.byte	$00
	.byte	$00
	.byte	$00
	.byte	$06
	.byte	$06
	.byte	$00
	.byte	$00
	.byte	$00
	.byte	$00
	.byte	$00
	.byte	$00
	.byte	$00
	.byte	$00
	.byte	$00
	.byte	$00
	.byte	$00
	.byte	$00
	.byte	$00
	.byte	$00
	.byte	$00
	.byte	$06
	.byte	$06
	.byte	$00
	.byte	$00
	.byte	$00
	.byte	$00
	.byte	$00
	.byte	$00
	.byte	$00
	.byte	$00
	.byte	$00
	.byte	$00
	.byte	$00
	.byte	$00
	.byte	$00
	.byte	$00
	.byte	$06
	.byte	$00
	.byte	$00
	.byte	$00
	.byte	$00
	.byte	$00
	.byte	$00
	.byte	$00
	.byte	$00
	.byte	$00
	.byte	$00
	.byte	$00
	.byte	$00
	.byte	$00
	.byte	$00
	.byte	$06
	.byte	$06
	.byte	$00
	.byte	$00
	.byte	$00
	.byte	$00
	.byte	$00
	.byte	$00
	.byte	$00
	.byte	$00
	.byte	$00
	.byte	$00
	.byte	$00
	.byte	$00
	.byte	$00
	.byte	$00
	.byte	$00
	.byte	$06
	.byte	$00
	.byte	$00
	.byte	$00
	.byte	$00
	.byte	$00
	.byte	$00
	.byte	$00
	.byte	$00
	.byte	$00
	.byte	$00
	.byte	$00
	.byte	$00
	.byte	$00
	.byte	$00
	.byte	$00
	.byte	$06
	.byte	$00
	.byte	$00
	.byte	$00
	.byte	$00
	.byte	$00
	.byte	$00
	.byte	$00
	.byte	$00
	.byte	$00
	.byte	$00
	.byte	$00
	.byte	$00
	.byte	$00
	.byte	$00
	.byte	$00
	.byte	$00
	.byte	$00
	.byte	$00
	.byte	$00
	.byte	$00
	.byte	$00
	.byte	$00
	.byte	$00
	.byte	$00
	.byte	$00
	.byte	$00
	.byte	$00
	.byte	$00
	.byte	$00
	.byte	$00
	.byte	$06
	.byte	$00
	.byte	$00
	.byte	$00
	.byte	$00
	.byte	$00
	.byte	$00
	.byte	$00
	.byte	$00
	.byte	$00
	.byte	$00
	.byte	$00
	.byte	$00
	.byte	$00
	.byte	$00
	.byte	$00
	.byte	$00
	.byte	$06
	.byte	$00
	.byte	$00
	.byte	$00
	.byte	$00
	.byte	$00
	.byte	$00
	.byte	$00
	.byte	$00
	.byte	$00
	.byte	$00
	.byte	$00
	.byte	$00
	.byte	$00
	.byte	$00
	.byte	$00
	.byte	$06
	.byte	$00
	.byte	$00
	.byte	$00
	.byte	$00
	.byte	$00
	.byte	$00
	.byte	$00
	.byte	$00
	.byte	$00
	.byte	$00
	.byte	$00
	.byte	$00
	.byte	$00
	.byte	$00
	.byte	$00
	.byte	$06
	.byte	$00
	.byte	$00
	.byte	$00
	.byte	$00
	.byte	$00
	.byte	$00
	.byte	$00
	.byte	$00
	.byte	$00
	.byte	$00
	.byte	$00
	.byte	$00
	.byte	$00
	.byte	$00
	.byte	$06
	.byte	$00
	.byte	$00
	.byte	$00
	.byte	$00
	.byte	$00
	.byte	$00
	.byte	$00
	.byte	$00
	.byte	$00
	.byte	$00
	.byte	$00
	.byte	$00
	.byte	$00
	.byte	$00
	.byte	$00
	.byte	$00
	.byte	$00
	.byte	$00
	.byte	$00
	.byte	$00
	.byte	$00
	.byte	$00
	.byte	$00
	.byte	$00
	.byte	$00
	.byte	$00
	.byte	$00
	.byte	$00
	.byte	$00
	.byte	$00
	.byte	$00
	.byte	$00
	.byte	$06
	.byte	$00
	.byte	$00
	.byte	$00
	.byte	$00
	.byte	$00
	.byte	$00
	.byte	$00
	.byte	$00
	.byte	$00
	.byte	$00
	.byte	$00
	.byte	$00
	.byte	$00
	.byte	$00
	.byte	$00
	.byte	$00
	.byte	$00
	.byte	$00
	.byte	$00
	.byte	$00
	.byte	$00
	.byte	$00
	.byte	$00
	.byte	$00
	.byte	$00
	.byte	$00
	.byte	$00
	.byte	$00
	.byte	$00
	.byte	$00
	.byte	$00
	.byte	$06
	.byte	$00
	.byte	$00
	.byte	$00
	.byte	$00
	.byte	$00
	.byte	$00
	.byte	$00
	.byte	$00
	.byte	$00
	.byte	$00
	.byte	$00
	.byte	$00
	.byte	$00
	.byte	$00
	.byte	$06
	.byte	$00
	.byte	$00
	.byte	$00
	.byte	$00
	.byte	$00
	.byte	$00
	.byte	$00
	.byte	$00
	.byte	$00
	.byte	$00
	.byte	$00
	.byte	$00
	.byte	$00
	.byte	$00
	.byte	$00
	.byte	$00
	.byte	$00
	.byte	$00
	.byte	$00
	.byte	$00
	.byte	$00
	.byte	$00
	.byte	$00
	.byte	$00
	.byte	$00
	.byte	$00
	.byte	$00
	.byte	$00
	.byte	$00
	.byte	$00
	.byte	$00
	.byte	$00
	.byte	$00
	.byte	$00
	.byte	$00
	.byte	$00
	.byte	$00
	.byte	$00
	.byte	$00
	.byte	$00
	.byte	$00
	.byte	$00
	.byte	$00
	.byte	$00
	.byte	$00
	.byte	$00
	.byte	$00
	.byte	$06
	.byte	$06
	.byte	$00
	.byte	$00
	.byte	$00
	.byte	$00
	.byte	$00
	.byte	$00
	.byte	$00
	.byte	$00
	.byte	$00
	.byte	$00
	.byte	$00
	.byte	$00
	.byte	$00
	.byte	$00
	.byte	$00
	.byte	$00
	.byte	$00
	.byte	$00
	.byte	$00
	.byte	$00
	.byte	$00
	.byte	$00
	.byte	$00
	.byte	$00
	.byte	$00
	.byte	$00
	.byte	$00
	.byte	$00
	.byte	$00
	.byte	$00
	.byte	$06
	.byte	$00
	.byte	$00
	.byte	$00
	.byte	$00
	.byte	$00
	.byte	$00
	.byte	$00
	.byte	$00
	.byte	$00
	.byte	$00
	.byte	$00
	.byte	$00
	.byte	$00
	.byte	$00
	.byte	$00
	.byte	$00
	.byte	$00
	.byte	$00
	.byte	$00
	.byte	$00
	.byte	$00
	.byte	$00
	.byte	$00
	.byte	$00
	.byte	$00
	.byte	$00
	.byte	$00
	.byte	$00
	.byte	$00
	.byte	$00
	.byte	$00
	.byte	$00
	.byte	$00
	.byte	$00
	.byte	$00
	.byte	$00
	.byte	$00
	.byte	$00
	.byte	$00
	.byte	$00
	.byte	$00
	.byte	$00
	.byte	$00
	.byte	$00
	.byte	$00
	.byte	$00
	.byte	$00
	.byte	$06
	.byte	$00
	.byte	$00
	.byte	$00
	.byte	$00
	.byte	$00
	.byte	$00
	.byte	$00
	.byte	$00
	.byte	$00
	.byte	$00
	.byte	$00
	.byte	$00
	.byte	$00
	.byte	$00
	.byte	$00
	.byte	$00
	.byte	$00
	.byte	$00
	.byte	$00
	.byte	$00
	.byte	$00
	.byte	$00
	.byte	$00
	.byte	$00
	.byte	$00
	.byte	$00
	.byte	$00
	.byte	$00
	.byte	$00
	.byte	$00
	.byte	$00
	.byte	$00
	.byte	$00
	.byte	$00
	.byte	$00
	.byte	$00
	.byte	$00
	.byte	$00
	.byte	$00
	.byte	$00
	.byte	$00
	.byte	$00
	.byte	$00
	.byte	$00
	.byte	$00
	.byte	$00
	.byte	$00
	.byte	$06
	.byte	$00
	.byte	$00
	.byte	$00
	.byte	$00
	.byte	$00
	.byte	$00
	.byte	$00
	.byte	$00
	.byte	$00
	.byte	$00
	.byte	$00
	.byte	$00
	.byte	$00
	.byte	$00
	.byte	$06
	.byte	$06
	.byte	$03
	.byte	$03
	.byte	$03
	.byte	$03
	.byte	$03
	.byte	$03
	.byte	$03
	.byte	$00
	.byte	$00
	.byte	$00
	.byte	$00
	.byte	$00
	.byte	$00
	.byte	$00
	.byte	$00
	.byte	$06
	.byte	$06
	.byte	$02
	.byte	$02
	.byte	$02
	.byte	$02
	.byte	$00
	.byte	$00
	.byte	$00
	.byte	$00
	.byte	$00
	.byte	$00
	.byte	$00
	.byte	$00
	.byte	$00
	.byte	$00
	.byte	$06
	.byte	$06
	.byte	$00
	.byte	$00
	.byte	$00
	.byte	$00
	.byte	$00
	.byte	$00
	.byte	$00
	.byte	$00
	.byte	$00
	.byte	$00
	.byte	$00
	.byte	$00
	.byte	$00
	.byte	$00
	.byte	$00
	.byte	$06
	.byte	$06
	.byte	$00
	.byte	$00
	.byte	$00
	.byte	$00
	.byte	$00
	.byte	$00
	.byte	$00
	.byte	$00
	.byte	$00
	.byte	$00
	.byte	$00
	.byte	$00
	.byte	$00
	.byte	$00
	.byte	$06
	.byte	$00
	.byte	$00
	.byte	$00
	.byte	$00
	.byte	$00
	.byte	$00
	.byte	$00
	.byte	$00
	.byte	$00
	.byte	$00
	.byte	$00
	.byte	$00
	.byte	$00
	.byte	$00
	.byte	$06
	.byte	$06
	.byte	$00
	.byte	$00
	.byte	$00
	.byte	$00
	.byte	$00
	.byte	$00
	.byte	$00
	.byte	$00
	.byte	$00
	.byte	$00
	.byte	$00
	.byte	$00
	.byte	$00
	.byte	$00
	.byte	$00
	.byte	$06
	.byte	$00
	.byte	$00
	.byte	$00
	.byte	$00
	.byte	$00
	.byte	$00
	.byte	$00
	.byte	$00
	.byte	$00
	.byte	$00
	.byte	$00
	.byte	$00
	.byte	$00
	.byte	$00
	.byte	$00
	.byte	$06
	.byte	$00
	.byte	$00
	.byte	$00
	.byte	$00
	.byte	$00
	.byte	$00
	.byte	$00
	.byte	$00
	.byte	$00
	.byte	$00
	.byte	$00
	.byte	$00
	.byte	$00
	.byte	$00
	.byte	$00
	.byte	$00
	.byte	$00
	.byte	$00
	.byte	$00
	.byte	$00
	.byte	$00
	.byte	$00
	.byte	$00
	.byte	$00
	.byte	$00
	.byte	$00
	.byte	$00
	.byte	$00
	.byte	$00
	.byte	$00
	.byte	$06
	.byte	$00
	.byte	$00
	.byte	$00
	.byte	$00
	.byte	$00
	.byte	$00
	.byte	$00
	.byte	$00
	.byte	$00
	.byte	$00
	.byte	$00
	.byte	$00
	.byte	$00
	.byte	$00
	.byte	$00
	.byte	$00
	.byte	$06
	.byte	$00
	.byte	$00
	.byte	$00
	.byte	$00
	.byte	$00
	.byte	$00
	.byte	$00
	.byte	$00
	.byte	$00
	.byte	$00
	.byte	$00
	.byte	$00
	.byte	$00
	.byte	$00
	.byte	$00
	.byte	$06
	.byte	$00
	.byte	$00
	.byte	$00
	.byte	$00
	.byte	$00
	.byte	$00
	.byte	$00
	.byte	$00
	.byte	$00
	.byte	$00
	.byte	$00
	.byte	$00
	.byte	$00
	.byte	$00
	.byte	$00
	.byte	$06
	.byte	$00
	.byte	$00
	.byte	$00
	.byte	$00
	.byte	$00
	.byte	$00
	.byte	$00
	.byte	$00
	.byte	$00
	.byte	$00
	.byte	$00
	.byte	$00
	.byte	$00
	.byte	$00
	.byte	$06
	.byte	$00
	.byte	$00
	.byte	$00
	.byte	$00
	.byte	$00
	.byte	$00
	.byte	$00
	.byte	$00
	.byte	$00
	.byte	$00
	.byte	$00
	.byte	$00
	.byte	$00
	.byte	$00
	.byte	$00
	.byte	$00
	.byte	$00
	.byte	$00
	.byte	$00
	.byte	$00
	.byte	$00
	.byte	$00
	.byte	$00
	.byte	$00
	.byte	$00
	.byte	$00
	.byte	$00
	.byte	$00
	.byte	$00
	.byte	$00
	.byte	$00
	.byte	$00
	.byte	$06
	.byte	$00
	.byte	$00
	.byte	$00
	.byte	$00
	.byte	$00
	.byte	$00
	.byte	$00
	.byte	$00
	.byte	$00
	.byte	$00
	.byte	$00
	.byte	$00
	.byte	$00
	.byte	$00
	.byte	$00
	.byte	$00
	.byte	$00
	.byte	$00
	.byte	$00
	.byte	$00
	.byte	$00
	.byte	$00
	.byte	$00
	.byte	$00
	.byte	$00
	.byte	$00
	.byte	$00
	.byte	$00
	.byte	$00
	.byte	$00
	.byte	$00
	.byte	$06
	.byte	$00
	.byte	$00
	.byte	$00
	.byte	$00
	.byte	$00
	.byte	$00
	.byte	$00
	.byte	$00
	.byte	$00
	.byte	$00
	.byte	$00
	.byte	$00
	.byte	$00
	.byte	$00
	.byte	$06
	.byte	$00
	.byte	$00
	.byte	$00
	.byte	$00
	.byte	$00
	.byte	$00
	.byte	$00
	.byte	$00
	.byte	$00
	.byte	$00
	.byte	$00
	.byte	$00
	.byte	$00
	.byte	$00
	.byte	$00
	.byte	$00
	.byte	$00
	.byte	$00
	.byte	$00
	.byte	$00
	.byte	$00
	.byte	$00
	.byte	$00
	.byte	$00
	.byte	$00
	.byte	$00
	.byte	$00
	.byte	$00
	.byte	$00
	.byte	$00
	.byte	$00
	.byte	$00
	.byte	$00
	.byte	$00
	.byte	$00
	.byte	$00
	.byte	$00
	.byte	$00
	.byte	$00
	.byte	$00
	.byte	$00
	.byte	$00
	.byte	$00
	.byte	$00
	.byte	$00
	.byte	$00
	.byte	$00
	.byte	$06
	.byte	$06
	.byte	$00
	.byte	$00
	.byte	$00
	.byte	$00
	.byte	$00
	.byte	$00
	.byte	$00
	.byte	$00
	.byte	$00
	.byte	$00
	.byte	$00
	.byte	$00
	.byte	$00
	.byte	$00
	.byte	$00
	.byte	$00
	.byte	$00
	.byte	$00
	.byte	$00
	.byte	$00
	.byte	$00
	.byte	$00
	.byte	$00
	.byte	$00
	.byte	$00
	.byte	$00
	.byte	$00
	.byte	$00
	.byte	$00
	.byte	$00
	.byte	$06
	.byte	$00
	.byte	$00
	.byte	$00
	.byte	$00
	.byte	$00
	.byte	$00
	.byte	$00
	.byte	$00
	.byte	$00
	.byte	$00
	.byte	$00
	.byte	$00
	.byte	$00
	.byte	$00
	.byte	$00
	.byte	$00
	.byte	$00
	.byte	$00
	.byte	$00
	.byte	$00
	.byte	$00
	.byte	$00
	.byte	$00
	.byte	$00
	.byte	$00
	.byte	$00
	.byte	$00
	.byte	$00
	.byte	$00
	.byte	$00
	.byte	$00
	.byte	$00
	.byte	$00
	.byte	$00
	.byte	$00
	.byte	$00
	.byte	$00
	.byte	$00
	.byte	$00
	.byte	$00
	.byte	$00
	.byte	$00
	.byte	$00
	.byte	$00
	.byte	$00
	.byte	$00
	.byte	$00
	.byte	$06
	.byte	$00
	.byte	$00
	.byte	$00
	.byte	$00
	.byte	$00
	.byte	$00
	.byte	$00
	.byte	$00
	.byte	$00
	.byte	$00
	.byte	$00
	.byte	$00
	.byte	$00
	.byte	$00
	.byte	$00
	.byte	$00
	.byte	$00
	.byte	$00
	.byte	$00
	.byte	$00
	.byte	$00
	.byte	$00
	.byte	$00
	.byte	$00
	.byte	$00
	.byte	$00
	.byte	$00
	.byte	$00
	.byte	$00
	.byte	$00
	.byte	$00
	.byte	$00
	.byte	$00
	.byte	$00
	.byte	$00
	.byte	$00
	.byte	$00
	.byte	$00
	.byte	$00
	.byte	$00
	.byte	$00
	.byte	$00
	.byte	$00
	.byte	$00
	.byte	$00
	.byte	$00
	.byte	$00
	.byte	$06
	.byte	$00
	.byte	$00
	.byte	$00
	.byte	$00
	.byte	$00
	.byte	$00
	.byte	$00
	.byte	$00
	.byte	$00
	.byte	$00
	.byte	$00
	.byte	$00
	.byte	$00
	.byte	$00
	.byte	$06
	.byte	$06
	.byte	$03
	.byte	$03
	.byte	$03
	.byte	$03
	.byte	$03
	.byte	$03
	.byte	$03
	.byte	$00
	.byte	$00
	.byte	$00
	.byte	$00
	.byte	$00
	.byte	$00
	.byte	$00
	.byte	$00
	.byte	$06
_mapLineCount:
	.word	$012C
_playerSpriteFrames:
	.byte	$00
	.byte	$00
	.byte	$24
	.byte	$00
	.byte	$08
	.byte	$00
	.byte	$25
	.byte	$00
	.byte	$00
	.byte	$08
	.byte	$34
	.byte	$00
	.byte	$08
	.byte	$08
	.byte	$35
	.byte	$00
	.byte	$7F
	.byte	$00
	.byte	$00
	.byte	$22
	.byte	$00
	.byte	$08
	.byte	$00
	.byte	$23
	.byte	$00
	.byte	$00
	.byte	$08
	.byte	$32
	.byte	$00
	.byte	$08
	.byte	$08
	.byte	$33
	.byte	$00
	.byte	$7F
	.byte	$00
	.byte	$00
	.byte	$26
	.byte	$00
	.byte	$08
	.byte	$00
	.byte	$27
	.byte	$00
	.byte	$00
	.byte	$08
	.byte	$36
	.byte	$00
	.byte	$08
	.byte	$08
	.byte	$37
	.byte	$00
	.byte	$7F
	.byte	$00
	.byte	$00
	.byte	$28
	.byte	$00
	.byte	$08
	.byte	$00
	.byte	$29
	.byte	$00
	.byte	$00
	.byte	$08
	.byte	$38
	.byte	$00
	.byte	$08
	.byte	$08
	.byte	$39
	.byte	$00
	.byte	$7F
	.byte	$00
	.byte	$00
	.byte	$2A
	.byte	$00
	.byte	$08
	.byte	$00
	.byte	$2B
	.byte	$00
	.byte	$00
	.byte	$08
	.byte	$3A
	.byte	$00
	.byte	$08
	.byte	$08
	.byte	$3B
	.byte	$00
	.byte	$7F
	.byte	$00
	.byte	$00
	.byte	$2C
	.byte	$00
	.byte	$08
	.byte	$00
	.byte	$2D
	.byte	$00
	.byte	$00
	.byte	$08
	.byte	$3C
	.byte	$00
	.byte	$08
	.byte	$08
	.byte	$3D
	.byte	$00
	.byte	$7F

.segment	"BSS"

.segment	"ZEROPAGE"
_endLoop:
	.res	1,$00
_i:
	.res	2,$00
_x:
	.res	2,$00
_y:
	.res	2,$00
_mapX:
	.res	2,$00
_mapY:
	.res	2,$00
_tileIndex:
	.res	2,$00
_tile:
	.res	1,$00
_tileIdx:
	.res	1,$00
_currentEntityId:
	.res	1,$00
_currentMetaSpriteId:
	.res	1,$00
_mapCurrentLine:
	.res	2,$00
_timer:
	.res	2,$00
_scrollIncrement:
	.res	1,$00
_playerId:
	.res	1,$00
.segment	"BSS"
.segment	"OAM"
_sprites:
	.res	256,$00
.segment	"BSS"
_entities:
	.res	96,$00

; ---------------------------------------------------------------
; void __near__ copyTitleScreen (void)
; ---------------------------------------------------------------

.segment	"CODE"

.proc	_copyTitleScreen: near

.segment	"CODE"

;
; PPU.vram.address = 0x20;
;
	lda     #$20
	sta     $2006
;
; PPU.vram.address = 0x00;
;
	lda     #$00
	sta     $2006
;
; for(i = 0; i < 30 * 32; i++) {
;
	sta     _i
	sta     _i+1
L03F7:	lda     _i+1
	cmp     #$03
	bne     L03FE
	lda     _i
	cmp     #$C0
L03FE:	bcs     L03F8
;
; PPU.vram.data = titleScreen[i];
;
	lda     #<(_titleScreen)
	sta     ptr1
	lda     #>(_titleScreen)
	clc
	adc     _i+1
	sta     ptr1+1
	ldy     _i
	lda     (ptr1),y
	sta     $2007
;
; for(i = 0; i < 30 * 32; i++) {
;
	lda     _i
	ldx     _i+1
	clc
	adc     #$01
	bcc     L0400
	inx
L0400:	sta     _i
	stx     _i+1
	jmp     L03F7
;
; PPU.vram.address = 0x23;
;
L03F8:	lda     #$23
	sta     $2006
;
; PPU.vram.address = 0xC0;
;
	lda     #$C0
	sta     $2006
;
; for(i = 0; i < 40; i++) {
;
	lda     #$00
	sta     _i
	sta     _i+1
L040B:	lda     _i+1
	cmp     #$00
	bne     L0412
	lda     _i
	cmp     #$28
L0412:	bcs     L040C
;
; PPU.vram.data = 0x00;
;
	lda     #$00
	sta     $2007
;
; for(i = 0; i < 40; i++) {
;
	lda     _i
	ldx     _i+1
	clc
	adc     #$01
	bcc     L0414
	inx
L0414:	sta     _i
	stx     _i+1
	jmp     L040B
;
; for(i = 40; i < 48; i++) {
;
L040C:	ldx     #$00
	lda     #$28
L1A9F:	sta     _i
	stx     _i+1
	lda     _i+1
	cmp     #$00
	bne     L041F
	lda     _i
	cmp     #$30
L041F:	bcs     L0419
;
; PPU.vram.data = 0xAA;
;
	lda     #$AA
	sta     $2007
;
; for(i = 40; i < 48; i++) {
;
	lda     _i
	ldx     _i+1
	clc
	adc     #$01
	bcc     L1A9F
	inx
	jmp     L1A9F
;
; for(i = 48; i < 64; i++) {
;
L0419:	ldx     #$00
	lda     #$30
L1AA0:	sta     _i
	stx     _i+1
	lda     _i+1
	cmp     #$00
	bne     L042C
	lda     _i
	cmp     #$40
L042C:	bcs     L0426
;
; PPU.vram.data = 0x55;
;
	lda     #$55
	sta     $2007
;
; for(i = 48; i < 64; i++) {
;
	lda     _i
	ldx     _i+1
	clc
	adc     #$01
	bcc     L1AA0
	inx
	jmp     L1AA0
;
; }
;
L0426:	rts

.endproc

; ---------------------------------------------------------------
; void __near__ __fastcall__ copyBgLine (__near__ const unsigned char *, unsigned int)
; ---------------------------------------------------------------

.segment	"CODE"

.proc	_copyBgLine: near

.segment	"BSS"

L1715:
	.res	2,$00

.segment	"CODE"

;
; void __fastcall__ copyBgLine(const uint8_t *buffer, uint16_t line) {
;
	jsr     pushax
;
; ptr = &BGBuffer;
;
	lda     #<(_BGBuffer)
	sta     L1715
	lda     #>(_BGBuffer)
	sta     L1715+1
;
; for(tile = 0; tile < 64; tile++) {
;
	lda     #$00
L1AA3:	sta     _tile
	cmp     #$40
	bcs     L1719
;
; tileIdx = buffer[line * 16 + ((tile & 0x1F) >> 1)] << 1;
;
	ldy     #$01
	lda     (sp),y
	tax
	dey
	lda     (sp),y
	jsr     shlax4
	sta     ptr1
	stx     ptr1+1
	lda     _tile
	and     #$1F
	lsr     a
	clc
	adc     ptr1
	pha
	tya
	adc     ptr1+1
	tax
	pla
	clc
	ldy     #$02
	adc     (sp),y
	sta     ptr1
	txa
	iny
	adc     (sp),y
	sta     ptr1+1
	ldy     #$00
	lda     (ptr1),y
	asl     a
	sta     _tileIdx
;
; if(tile & 0x1) {
;
	lda     _tile
	and     #$01
	beq     L1AA2
;
; ++tileIdx;
;
	inc     _tileIdx
;
; if(tile >= 32) {
;
L1AA2:	lda     _tile
	cmp     #$20
	bcc     L1728
;
; tileIdx += 0x10;
;
	lda     #$10
	clc
	adc     _tileIdx
	sta     _tileIdx
;
; (*ptr++) = tileIdx;
;
L1728:	lda     L1715
	ldx     L1715+1
	sta     regsave
	stx     regsave+1
	clc
	adc     #$01
	bcc     L172E
	inx
L172E:	sta     L1715
	stx     L1715+1
	lda     _tileIdx
	sta     (regsave),y
;
; for(tile = 0; tile < 64; tile++) {
;
	lda     _tile
	clc
	adc     #$01
	jmp     L1AA3
;
; }
;
L1719:	jmp     incsp4

.endproc

; ---------------------------------------------------------------
; void __near__ fillBackground (void)
; ---------------------------------------------------------------

.segment	"CODE"

.proc	_fillBackground: near

.segment	"CODE"

;
; mapCurrentLine = mapLineCount - 30;
;
	lda     _mapLineCount
	ldx     _mapLineCount+1
	sec
	sbc     #$1E
	bcs     L1733
	dex
L1733:	sta     _mapCurrentLine
	stx     _mapCurrentLine+1
;
; PPU.vram.address = 0x20;
;
	lda     #$20
	sta     $2006
;
; PPU.vram.address = 0x00;
;
	lda     #$00
	sta     $2006
;
; for(i = 0; i < 15; i++) {
;
	sta     _i
	sta     _i+1
L173A:	lda     _i+1
	cmp     #$00
	bne     L1741
	lda     _i
	cmp     #$0F
L1741:	bcs     L173B
;
; copyBgLine(map, mapCurrentLine + i);
;
	lda     #<(_map)
	ldx     #>(_map)
	jsr     pushax
	lda     _mapCurrentLine
	clc
	adc     _i
	pha
	lda     _mapCurrentLine+1
	adc     _i+1
	tax
	pla
	jsr     _copyBgLine
;
; flushBGBuffer();
;
	ldy     #$00
	jsr     _flushBGBuffer
;
; for(i = 0; i < 15; i++) {
;
	lda     _i
	ldx     _i+1
	clc
	adc     #$01
	bcc     L1743
	inx
L1743:	sta     _i
	stx     _i+1
	jmp     L173A
;
; PPU.vram.address = 0x28;
;
L173B:	lda     #$28
	sta     $2006
;
; PPU.vram.address = 0x00;
;
	lda     #$00
	sta     $2006
;
; for(i = 0; i < 15; i++) {
;
	sta     _i
	sta     _i+1
L174E:	lda     _i+1
	cmp     #$00
	bne     L1755
	lda     _i
	cmp     #$0F
L1755:	bcs     L174F
;
; copyBgLine(map, mapCurrentLine + 15 + i);
;
	lda     #<(_map)
	ldx     #>(_map)
	jsr     pushax
	lda     _mapCurrentLine
	ldx     _mapCurrentLine+1
	clc
	adc     #$0F
	bcc     L1AA4
	inx
	clc
L1AA4:	adc     _i
	pha
	txa
	adc     _i+1
	tax
	pla
	jsr     _copyBgLine
;
; flushBGBuffer();
;
	ldy     #$00
	jsr     _flushBGBuffer
;
; for(i = 0; i < 15; i++) {
;
	lda     _i
	ldx     _i+1
	clc
	adc     #$01
	bcc     L1757
	inx
L1757:	sta     _i
	stx     _i+1
	jmp     L174E
;
; PPU.vram.address = 0x23;
;
L174F:	lda     #$23
	sta     $2006
;
; PPU.vram.address = 0xC0;
;
	lda     #$C0
	sta     $2006
;
; for(i = 0; i < 64; i++) {
;
	lda     #$00
	sta     _i
	sta     _i+1
L1763:	lda     _i+1
	cmp     #$00
	bne     L176A
	lda     _i
	cmp     #$40
L176A:	bcs     L1764
;
; PPU.vram.data = 0x00;
;
	lda     #$00
	sta     $2007
;
; for(i = 0; i < 64; i++) {
;
	lda     _i
	ldx     _i+1
	clc
	adc     #$01
	bcc     L176C
	inx
L176C:	sta     _i
	stx     _i+1
	jmp     L1763
;
; PPU.vram.address = 0x2B;
;
L1764:	lda     #$2B
	sta     $2006
;
; PPU.vram.address = 0xC0;
;
	lda     #$C0
	sta     $2006
;
; for(i = 0; i < 64; i++) {
;
	lda     #$00
	sta     _i
	sta     _i+1
L1776:	lda     _i+1
	cmp     #$00
	bne     L177D
	lda     _i
	cmp     #$40
L177D:	bcs     L1777
;
; PPU.vram.data = 0xFF;
;
	lda     #$FF
	sta     $2007
;
; for(i = 0; i < 64; i++) {
;
	lda     _i
	ldx     _i+1
	clc
	adc     #$01
	bcc     L177F
	inx
L177F:	sta     _i
	stx     _i+1
	jmp     L1776
;
; }
;
L1777:	rts

.endproc

; ---------------------------------------------------------------
; void __near__ __fastcall__ drawMetaSprite (unsigned char, unsigned char, __near__ const unsigned char *)
; ---------------------------------------------------------------

.segment	"CODE"

.proc	_drawMetaSprite: near

.segment	"CODE"

;
; void __fastcall__ drawMetaSprite(uint8_t x, uint8_t y, const uint8_t *data) {
;
	jsr     pushax
;
; const uint8_t *ptr = data;
;
	jsr     pushw0sp
;
; while(*ptr != 127) {
;
	jmp     L17EE
;
; if(x + *ptr < 255) {
;
L17EC:	ldy     #$05
	lda     (sp),y
	jsr     pusha0
	ldy     #$03
	lda     (sp),y
	sta     ptr1+1
	dey
	lda     (sp),y
	sta     ptr1
	lda     (ptr1,x)
	jsr     tosadda0
	cpx     #$00
	bne     L17F2
	cmp     #$FF
L17F2:	jcs     L17F0
;
; sprites[currentMetaSpriteId].x = x + *(ptr++);
;
	ldx     #$00
	lda     _currentMetaSpriteId
	jsr     aslax2
	clc
	adc     #<(_sprites)
	tay
	txa
	adc     #>(_sprites)
	tax
	tya
	jsr     pushax
	ldy     #$07
	lda     (sp),y
	jsr     pusha0
	ldy     #$05
	lda     (sp),y
	tax
	dey
	lda     (sp),y
	sta     regsave
	stx     regsave+1
	clc
	adc     #$01
	bcc     L17F7
	inx
L17F7:	jsr     staxysp
	ldx     #$00
	lda     (regsave,x)
	jsr     tosadda0
	ldy     #$03
	jsr     staspidx
;
; sprites[currentMetaSpriteId].y = y + *(ptr++);
;
	ldx     #$00
	lda     _currentMetaSpriteId
	jsr     aslax2
	clc
	adc     #<(_sprites)
	tay
	txa
	adc     #>(_sprites)
	tax
	tya
	jsr     pushax
	ldy     #$06
	lda     (sp),y
	jsr     pusha0
	ldy     #$05
	lda     (sp),y
	tax
	dey
	lda     (sp),y
	sta     regsave
	stx     regsave+1
	clc
	adc     #$01
	bcc     L17FC
	inx
L17FC:	jsr     staxysp
	ldx     #$00
	lda     (regsave,x)
	jsr     tosadda0
	ldy     #$00
	jsr     staspidx
;
; sprites[currentMetaSpriteId].tile_index = *(ptr++);
;
	ldx     #$00
	lda     _currentMetaSpriteId
	jsr     aslax2
	clc
	adc     #<(_sprites)
	tay
	txa
	adc     #>(_sprites)
	tax
	tya
	jsr     pushax
	ldy     #$03
	lda     (sp),y
	tax
	dey
	lda     (sp),y
	sta     regsave
	stx     regsave+1
	clc
	adc     #$01
	bcc     L1801
	inx
L1801:	jsr     staxysp
	ldy     #$00
	lda     (regsave),y
	iny
	jsr     staspidx
;
; sprites[currentMetaSpriteId].attributes = *(ptr++);
;
	ldx     #$00
	lda     _currentMetaSpriteId
	jsr     aslax2
	clc
	adc     #<(_sprites)
	tay
	txa
	adc     #>(_sprites)
	tax
	tya
	jsr     pushax
	ldy     #$03
	lda     (sp),y
	tax
	dey
	lda     (sp),y
	sta     regsave
	stx     regsave+1
	clc
	adc     #$01
	bcc     L1806
	inx
L1806:	jsr     staxysp
	ldy     #$00
	lda     (regsave),y
	ldy     #$02
	jsr     staspidx
;
; currentMetaSpriteId++;
;
	lda     _currentMetaSpriteId
	clc
	adc     #$01
	sta     _currentMetaSpriteId
;
; } else {
;
	jmp     L17EE
;
; ptr += 4; 
;
L17F0:	ldx     #$00
	lda     #$04
	jsr     addeq0sp
;
; while(*ptr != 127) {
;
L17EE:	ldy     #$01
	lda     (sp),y
	sta     ptr1+1
	dey
	lda     (sp),y
	sta     ptr1
	lda     (ptr1),y
	cmp     #$7F
	jne     L17EC
;
; }
;
	jmp     incsp6

.endproc

; ---------------------------------------------------------------
; void __near__ __fastcall__ drawSprite (unsigned char, unsigned char, unsigned char, unsigned char)
; ---------------------------------------------------------------

.segment	"CODE"

.proc	_drawSprite: near

.segment	"CODE"

;
; void __fastcall__ drawSprite(uint8_t x, uint8_t y, uint8_t tile, uint8_t attr) {
;
	jsr     pusha
;
; sprites[currentMetaSpriteId].x = x;
;
	ldx     #$00
	lda     _currentMetaSpriteId
	jsr     aslax2
	clc
	adc     #<(_sprites)
	sta     ptr1
	txa
	adc     #>(_sprites)
	sta     ptr1+1
	ldy     #$03
	lda     (sp),y
	sta     (ptr1),y
;
; sprites[currentMetaSpriteId].y = y;
;
	ldx     #$00
	lda     _currentMetaSpriteId
	jsr     aslax2
	clc
	adc     #<(_sprites)
	sta     ptr1
	txa
	adc     #>(_sprites)
	sta     ptr1+1
	dey
	lda     (sp),y
	ldy     #$00
	sta     (ptr1),y
;
; sprites[currentMetaSpriteId].tile_index = tile;
;
	ldx     #$00
	lda     _currentMetaSpriteId
	jsr     aslax2
	clc
	adc     #<(_sprites)
	sta     ptr1
	txa
	adc     #>(_sprites)
	sta     ptr1+1
	iny
	lda     (sp),y
	sta     (ptr1),y
;
; sprites[currentMetaSpriteId].attributes = attr;
;
	ldx     #$00
	lda     _currentMetaSpriteId
	jsr     aslax2
	clc
	adc     #<(_sprites)
	sta     ptr1
	txa
	adc     #>(_sprites)
	sta     ptr1+1
	dey
	lda     (sp),y
	ldy     #$02
	sta     (ptr1),y
;
; currentMetaSpriteId++;
;
	lda     _currentMetaSpriteId
	clc
	adc     #$01
	sta     _currentMetaSpriteId
;
; }
;
	jmp     incsp4

.endproc

; ---------------------------------------------------------------
; void __near__ initEntityList (void)
; ---------------------------------------------------------------

.segment	"CODE"

.proc	_initEntityList: near

.segment	"CODE"

;
; for(i = 0; i < ENTITY_COUNT; i++) {
;
	lda     #$00
	sta     _i
	sta     _i+1
L181F:	lda     _i+1
	cmp     #$00
	bne     L1826
	lda     _i
	cmp     #$0C
L1826:	jcs     L1820
;
; entities[i].x = 0;
;
	lda     _i
	ldx     _i+1
	jsr     aslax3
	clc
	adc     #<(_entities)
	sta     ptr1
	txa
	adc     #>(_entities)
	sta     ptr1+1
	lda     #$00
	ldy     #$02
	sta     (ptr1),y
;
; entities[i].y = 0;
;
	lda     _i
	ldx     _i+1
	jsr     aslax3
	clc
	adc     #<(_entities)
	sta     ptr1
	txa
	adc     #>(_entities)
	sta     ptr1+1
	lda     #$00
	iny
	sta     (ptr1),y
;
; entities[i].vx = 0;
;
	lda     _i
	ldx     _i+1
	jsr     aslax3
	clc
	adc     #<(_entities)
	sta     ptr1
	txa
	adc     #>(_entities)
	sta     ptr1+1
	lda     #$00
	iny
	sta     (ptr1),y
;
; entities[i].vy = 0;
;
	lda     _i
	ldx     _i+1
	jsr     aslax3
	clc
	adc     #<(_entities)
	sta     ptr1
	txa
	adc     #>(_entities)
	sta     ptr1+1
	lda     #$00
	iny
	sta     (ptr1),y
;
; entities[i].kind = 0xFF;
;
	lda     _i
	ldx     _i+1
	jsr     aslax3
	clc
	adc     #<(_entities)
	sta     ptr1
	txa
	adc     #>(_entities)
	sta     ptr1+1
	lda     #$FF
	ldy     #$07
	sta     (ptr1),y
;
; entities[i].health = 0;
;
	lda     _i
	ldx     _i+1
	jsr     aslax3
	clc
	adc     #<(_entities)
	sta     ptr1
	txa
	adc     #>(_entities)
	sta     ptr1+1
	lda     #$00
	dey
	sta     (ptr1),y
;
; entities[i].prev = i == 0? 0xFF : i - 1;
;
	lda     _i
	ldx     _i+1
	jsr     aslax3
	clc
	adc     #<(_entities)
	sta     ptr1
	txa
	adc     #>(_entities)
	sta     ptr1+1
	lda     _i
	ora     _i+1
	bne     L183F
	lda     #$FF
	jmp     L1AA5
L183F:	lda     _i
	sec
	sbc     #$01
L1AA5:	ldy     #$00
	sta     (ptr1),y
;
; entities[i].next = i == ENTITY_COUNT - 1 ? 0xFF : i + 1;
;
	lda     _i
	ldx     _i+1
	jsr     aslax3
	clc
	adc     #<(_entities)
	sta     ptr1
	txa
	adc     #>(_entities)
	sta     ptr1+1
	lda     _i+1
	bne     L1848
	lda     _i
	cmp     #$0B
	bne     L1848
	lda     #$FF
	jmp     L1AA6
L1848:	lda     _i
	clc
	adc     #$01
L1AA6:	iny
	sta     (ptr1),y
;
; for(i = 0; i < ENTITY_COUNT; i++) {
;
	lda     _i
	ldx     _i+1
	clc
	adc     #$01
	bcc     L1828
	inx
L1828:	sta     _i
	stx     _i+1
	jmp     L181F
;
; freeEntityList = 0;
;
L1820:	lda     #$00
	sta     _freeEntityList
;
; entityList = 0xFF;
;
	lda     #$FF
	sta     _entityList
;
; missileList = 0xFF;
;
	sta     _missileList
;
; }
;
	rts

.endproc

; ---------------------------------------------------------------
; void __near__ pushEntity (unsigned char, __near__ unsigned char *)
; ---------------------------------------------------------------

.segment	"CODE"

.proc	_pushEntity: near

.segment	"CODE"

;
; void pushEntity(uint8_t id, uint8_t *list) {
;
	jsr     pushax
;
; if(*list != 0xFF) {
;
	ldy     #$01
	lda     (sp),y
	sta     ptr1+1
	dey
	lda     (sp),y
	sta     ptr1
	lda     (ptr1),y
	cmp     #$FF
	beq     L1854
;
; entities[id].next = *list;
;
	ldy     #$02
	ldx     #$00
	lda     (sp),y
	jsr     aslax3
	clc
	adc     #<(_entities)
	tay
	txa
	adc     #>(_entities)
	tax
	tya
	jsr     pushax
	ldy     #$03
	lda     (sp),y
	sta     ptr1+1
	dey
	lda     (sp),y
	sta     ptr1
	ldy     #$00
	lda     (ptr1),y
	iny
	jsr     staspidx
;
; entities[*list].prev = id;
;
	ldy     #$01
	lda     (sp),y
	sta     ptr1+1
	dey
	lda     (sp),y
	sta     ptr1
	ldx     #$00
	lda     (ptr1),y
	jsr     aslax3
	clc
	adc     #<(_entities)
	sta     ptr1
	txa
	adc     #>(_entities)
	sta     ptr1+1
	ldy     #$02
	lda     (sp),y
	ldy     #$00
	sta     (ptr1),y
;
; *list = id;
;
L1854:	iny
	lda     (sp),y
	sta     ptr1+1
	dey
	lda     (sp),y
	sta     ptr1
	ldy     #$02
	lda     (sp),y
	ldy     #$00
	sta     (ptr1),y
;
; }
;
	jmp     incsp3

.endproc

; ---------------------------------------------------------------
; void __near__ removeEntity (unsigned char, __near__ unsigned char *)
; ---------------------------------------------------------------

.segment	"CODE"

.proc	_removeEntity: near

.segment	"CODE"

;
; void removeEntity(uint8_t id, uint8_t *list) {
;
	jsr     pushax
;
; if(*list == id) {
;
	ldy     #$01
	lda     (sp),y
	sta     ptr1+1
	dey
	lda     (sp),y
	sta     ptr1
	ldx     #$00
	lda     (ptr1),y
	ldy     #$02
	cmp     (sp),y
	bne     L1AB1
;
; if(entities[id].next == 0xFF) {
;
	lda     (sp),y
	jsr     aslax3
	clc
	adc     #<(_entities)
	sta     ptr1
	txa
	adc     #>(_entities)
	sta     ptr1+1
	dey
	lda     (ptr1),y
	cmp     #$FF
	bne     L1AAF
;
; *list = 0xFF; // empty list
;
	lda     (sp),y
	sta     ptr1+1
	dey
	lda     (sp),y
	sta     ptr1
	lda     #$FF
	sta     (ptr1),y
;
; } else {
;
	jmp     L1870
;
; *list = entities[id].next;
;
L1AAF:	lda     (sp),y
	sta     sreg+1
	dey
	lda     (sp),y
	sta     sreg
	ldx     #$00
	ldy     #$02
	lda     (sp),y
	jsr     aslax3
	clc
	adc     #<(_entities)
	sta     ptr1
	txa
	adc     #>(_entities)
	sta     ptr1+1
	dey
	lda     (ptr1),y
	dey
	sta     (sreg),y
;
; entities[*list].prev = 0xFF;
;
	iny
	lda     (sp),y
	sta     ptr1+1
	dey
	lda     (sp),y
	sta     ptr1
	ldx     #$00
	lda     (ptr1),y
	jsr     aslax3
	clc
	adc     #<(_entities)
	sta     ptr1
	txa
	adc     #>(_entities)
	sta     ptr1+1
	lda     #$FF
	sta     (ptr1),y
;
; } else {
;
	jmp     L1870
;
; entities[entities[id].prev].next = entities[id].next;
;
L1AB1:	lda     (sp),y
	jsr     aslax3
	sta     ptr1
	txa
	clc
	adc     #>(_entities)
	sta     ptr1+1
	ldy     #<(_entities)
	ldx     #$00
	lda     (ptr1),y
	jsr     aslax3
	clc
	adc     #<(_entities)
	sta     sreg
	txa
	adc     #>(_entities)
	sta     sreg+1
	ldx     #$00
	ldy     #$02
	lda     (sp),y
	jsr     aslax3
	clc
	adc     #<(_entities)
	sta     ptr1
	txa
	adc     #>(_entities)
	sta     ptr1+1
	dey
	lda     (ptr1),y
	sta     (sreg),y
;
; entities[entities[id].next].prev = entities[id].prev;
;
	iny
	ldx     #$00
	lda     (sp),y
	jsr     aslax3
	clc
	adc     #<(_entities)
	sta     ptr1
	txa
	adc     #>(_entities)
	sta     ptr1+1
	dey
	ldx     #$00
	lda     (ptr1),y
	jsr     aslax3
	clc
	adc     #<(_entities)
	sta     sreg
	txa
	adc     #>(_entities)
	sta     sreg+1
	ldx     #$00
	iny
	lda     (sp),y
	jsr     aslax3
	sta     ptr1
	txa
	clc
	adc     #>(_entities)
	sta     ptr1+1
	ldy     #<(_entities)
	lda     (ptr1),y
	ldy     #$00
	sta     (sreg),y
;
; entities[id].next = 0xFF;
;
L1870:	ldy     #$02
	ldx     #$00
	lda     (sp),y
	jsr     aslax3
	clc
	adc     #<(_entities)
	sta     ptr1
	txa
	adc     #>(_entities)
	sta     ptr1+1
	lda     #$FF
	dey
	sta     (ptr1),y
;
; entities[id].prev = 0xFF;
;
	iny
	ldx     #$00
	lda     (sp),y
	jsr     aslax3
	clc
	adc     #<(_entities)
	sta     ptr1
	txa
	adc     #>(_entities)
	sta     ptr1+1
	lda     #$FF
	ldy     #$00
	sta     (ptr1),y
;
; }
;
	jmp     incsp3

.endproc

; ---------------------------------------------------------------
; unsigned char __near__ popEntity (__near__ unsigned char *)
; ---------------------------------------------------------------

.segment	"CODE"

.proc	_popEntity: near

.segment	"CODE"

;
; uint8_t popEntity(uint8_t *list) {
;
	jsr     pushax
;
; uint8_t newId = *list;
;
	ldy     #$01
	lda     (sp),y
	sta     ptr1+1
	dey
	lda     (sp),y
	sta     ptr1
	lda     (ptr1),y
	jsr     pusha
;
; if(newId != 0xFF)
;
	ldx     #$00
	lda     (sp,x)
	cmp     #$FF
	beq     L1AB3
;
; removeEntity(newId, list);
;
	jsr     pusha
	ldy     #$03
	lda     (sp),y
	tax
	dey
	lda     (sp),y
	jsr     _removeEntity
;
; return newId;
;
	ldx     #$00
L1AB3:	lda     (sp,x)
;
; }
;
	jmp     incsp3

.endproc

; ---------------------------------------------------------------
; void __near__ __fastcall__ spawnBullet (unsigned char, unsigned char)
; ---------------------------------------------------------------

.segment	"CODE"

.proc	_spawnBullet: near

.segment	"CODE"

;
; void __fastcall__ spawnBullet(uint8_t x, uint8_t y) {
;
	jsr     pusha
;
; if(sprites[BULLET_SPRITE + nextBullet].y > 240) {
;
	ldx     #$00
	lda     _nextBullet
	clc
	adc     #$38
	bcc     L188D
	inx
L188D:	jsr     aslax2
	sta     ptr1
	txa
	clc
	adc     #>(_sprites)
	sta     ptr1+1
	ldy     #<(_sprites)
	lda     (ptr1),y
	cmp     #$F1
	bcs     L1AB4
;
; }
;
	jmp     incsp2
;
; sprites[BULLET_SPRITE + nextBullet].x = x;
;
L1AB4:	ldx     #$00
	lda     _nextBullet
	clc
	adc     #$38
	bcc     L1890
	inx
L1890:	jsr     aslax2
	clc
	adc     #<(_sprites)
	sta     ptr1
	txa
	adc     #>(_sprites)
	sta     ptr1+1
	ldy     #$01
	lda     (sp),y
	ldy     #$03
	sta     (ptr1),y
;
; sprites[BULLET_SPRITE + nextBullet].y = y;
;
	ldx     #$00
	lda     _nextBullet
	clc
	adc     #$38
	bcc     L1894
	inx
L1894:	jsr     aslax2
	clc
	adc     #<(_sprites)
	sta     ptr1
	txa
	adc     #>(_sprites)
	sta     ptr1+1
	ldy     #$00
	lda     (sp),y
	sta     (ptr1),y
;
; sprites[BULLET_SPRITE + nextBullet].tile_index = 0x60;
;
	ldx     #$00
	lda     _nextBullet
	clc
	adc     #$38
	bcc     L1898
	inx
L1898:	jsr     aslax2
	clc
	adc     #<(_sprites)
	sta     ptr1
	txa
	adc     #>(_sprites)
	sta     ptr1+1
	lda     #$60
	iny
	sta     (ptr1),y
;
; sprites[BULLET_SPRITE + nextBullet].attributes = 0x02;
;
	ldx     #$00
	lda     _nextBullet
	clc
	adc     #$38
	bcc     L189C
	inx
L189C:	jsr     aslax2
	clc
	adc     #<(_sprites)
	sta     ptr1
	txa
	adc     #>(_sprites)
	sta     ptr1+1
	lda     #$02
	iny
	sta     (ptr1),y
;
; nextBullet = (nextBullet + 1) & 0x7;
;
	lda     _nextBullet
	clc
	adc     #$01
	and     #$07
	sta     _nextBullet
;
; }
;
	jmp     incsp2

.endproc

; ---------------------------------------------------------------
; void __near__ knightUpdate (void)
; ---------------------------------------------------------------

.segment	"CODE"

.proc	_knightUpdate: near

.segment	"CODE"

;
; entities[currentEntityId].y += scrollIncrement;
;
	ldx     #$00
	lda     _currentEntityId
	jsr     aslax3
	clc
	adc     #<(_entities)
	tay
	txa
	adc     #>(_entities)
	tax
	tya
	jsr     pushax
	sta     ptr1
	stx     ptr1+1
	ldy     #$03
	lda     (ptr1),y
	clc
	adc     _scrollIncrement
	jsr     staspidx
;
; if(entities[currentEntityId].x < entities[playerId].x)
;
	ldx     #$00
	lda     _currentEntityId
	jsr     aslax3
	clc
	adc     #<(_entities)
	sta     ptr1
	txa
	adc     #>(_entities)
	sta     ptr1+1
	ldy     #$02
	lda     (ptr1),y
	jsr     pusha0
	lda     _playerId
	jsr     aslax3
	clc
	adc     #<(_entities)
	sta     ptr1
	txa
	adc     #>(_entities)
	sta     ptr1+1
	ldy     #$02
	lda     (ptr1),y
	jsr     tosicmp0
	bcs     L18A6
;
; entities[currentEntityId].x += 1;
;
	ldx     #$00
	lda     _currentEntityId
	jsr     aslax3
	clc
	adc     #<(_entities)
	sta     ptr1
	txa
	adc     #>(_entities)
	sta     ptr1+1
	ldy     #$02
	lda     (ptr1),y
	clc
	adc     #$01
	sta     (ptr1),y
;
; if(entities[currentEntityId].x > entities[playerId].x)
;
L18A6:	ldx     #$00
	lda     _currentEntityId
	jsr     aslax3
	clc
	adc     #<(_entities)
	sta     ptr1
	txa
	adc     #>(_entities)
	sta     ptr1+1
	ldy     #$02
	lda     (ptr1),y
	jsr     pusha0
	lda     _playerId
	jsr     aslax3
	clc
	adc     #<(_entities)
	sta     ptr1
	txa
	adc     #>(_entities)
	sta     ptr1+1
	ldy     #$02
	lda     (ptr1),y
	jsr     tosicmp0
	bcc     L18AD
	beq     L18AD
;
; entities[currentEntityId].x -= 1;
;
	ldx     #$00
	lda     _currentEntityId
	jsr     aslax3
	clc
	adc     #<(_entities)
	sta     ptr1
	txa
	adc     #>(_entities)
	sta     ptr1+1
	ldy     #$02
	lda     (ptr1),y
	sec
	sbc     #$01
	sta     (ptr1),y
;
; if(entities[currentEntityId].y > 240) {
;
L18AD:	ldx     #$00
	lda     _currentEntityId
	jsr     aslax3
	clc
	adc     #<(_entities)
	sta     ptr1
	txa
	adc     #>(_entities)
	sta     ptr1+1
	ldy     #$03
	lda     (ptr1),y
	cmp     #$F1
	bcc     L18B4
;
; removeEntity(currentEntityId, &entityList);
;
	lda     _currentEntityId
	jsr     pusha
	lda     #<(_entityList)
	ldx     #>(_entityList)
	jsr     _removeEntity
;
; pushEntity(currentEntityId, &freeEntityList);
;
	lda     _currentEntityId
	jsr     pusha
	lda     #<(_freeEntityList)
	ldx     #>(_freeEntityList)
	jsr     _pushEntity
;
; drawSprite(entities[currentEntityId].x, entities[currentEntityId].y, 0x40, 0x01);
;
L18B4:	jsr     decsp3
	ldx     #$00
	lda     _currentEntityId
	jsr     aslax3
	clc
	adc     #<(_entities)
	sta     ptr1
	txa
	adc     #>(_entities)
	sta     ptr1+1
	ldy     #$02
	lda     (ptr1),y
	sta     (sp),y
	ldx     #$00
	lda     _currentEntityId
	jsr     aslax3
	clc
	adc     #<(_entities)
	sta     ptr1
	txa
	adc     #>(_entities)
	sta     ptr1+1
	iny
	lda     (ptr1),y
	ldy     #$01
	sta     (sp),y
	lda     #$40
	dey
	sta     (sp),y
	lda     #$01
	jmp     _drawSprite

.endproc

; ---------------------------------------------------------------
; void __near__ spawnKnight (unsigned char, unsigned char)
; ---------------------------------------------------------------

.segment	"CODE"

.proc	_spawnKnight: near

.segment	"CODE"

;
; void spawnKnight(uint8_t x, uint8_t y) {
;
	jsr     pusha
;
; uint8_t id = popEntity(&freeEntityList);
;
	lda     #<(_freeEntityList)
	ldx     #>(_freeEntityList)
	jsr     _popEntity
	jsr     pusha
;
; if(id != 0xFF) {
;
	ldy     #$00
	lda     (sp),y
	cmp     #$FF
	bne     L1AB6
;
; }
;
	jmp     incsp3
;
; pushEntity(id, &entityList);
;
L1AB6:	jsr     pusha
	lda     #<(_entityList)
	ldx     #>(_entityList)
	jsr     _pushEntity
;
; entities[id].x = x;
;
	ldx     #$00
	lda     (sp,x)
	jsr     aslax3
	clc
	adc     #<(_entities)
	sta     ptr1
	txa
	adc     #>(_entities)
	sta     ptr1+1
	ldy     #$02
	lda     (sp),y
	sta     (ptr1),y
;
; entities[id].y = y;
;
	ldx     #$00
	lda     (sp,x)
	jsr     aslax3
	clc
	adc     #<(_entities)
	sta     ptr1
	txa
	adc     #>(_entities)
	sta     ptr1+1
	dey
	lda     (sp),y
	ldy     #$03
	sta     (ptr1),y
;
; entities[id].vx = 0;
;
	ldx     #$00
	lda     (sp,x)
	jsr     aslax3
	clc
	adc     #<(_entities)
	sta     ptr1
	txa
	adc     #>(_entities)
	sta     ptr1+1
	lda     #$00
	iny
	sta     (ptr1),y
;
; entities[id].vy = 0;
;
	tax
	lda     (sp,x)
	jsr     aslax3
	clc
	adc     #<(_entities)
	sta     ptr1
	txa
	adc     #>(_entities)
	sta     ptr1+1
	lda     #$00
	iny
	sta     (ptr1),y
;
; entities[id].health = 4;
;
	tax
	lda     (sp,x)
	jsr     aslax3
	clc
	adc     #<(_entities)
	sta     ptr1
	txa
	adc     #>(_entities)
	sta     ptr1+1
	lda     #$04
	iny
	sta     (ptr1),y
;
; entities[id].kind = 1;
;
	ldx     #$00
	lda     (sp,x)
	jsr     aslax3
	clc
	adc     #<(_entities)
	sta     ptr1
	txa
	adc     #>(_entities)
	sta     ptr1+1
	lda     #$01
	iny
	sta     (ptr1),y
;
; }
;
	jmp     incsp3

.endproc

; ---------------------------------------------------------------
; void __near__ playerUpdate (void)
; ---------------------------------------------------------------

.segment	"CODE"

.proc	_playerUpdate: near

.segment	"CODE"

;
; if(InputPort1 & BUTTON_UP) {
;
	lda     _InputPort1
	and     #$08
	beq     L1AB8
;
; if (entities[currentEntityId].vy > -2) {
;
	ldx     #$00
	lda     _currentEntityId
	jsr     aslax3
	clc
	adc     #<(_entities)
	tay
	txa
	adc     #>(_entities)
	tax
	tya
	ldy     #$05
	jsr     ldaidx
	sec
	sbc     #$FF
	bvs     L18E4
	eor     #$80
L18E4:	jpl     L1ABC
;
; entities[currentEntityId].vy -= 1;
;
	ldx     #$00
	lda     _currentEntityId
	jsr     aslax3
	clc
	adc     #<(_entities)
	tay
	txa
	adc     #>(_entities)
	tax
	tya
	jsr     pushax
	ldy     #$05
	jsr     ldaidx
	sec
	sbc     #$01
	jsr     staspidx
;
; else if(InputPort1 & BUTTON_DOWN) {
;
	jmp     L1ABC
L1AB8:	lda     _InputPort1
	ldx     #$00
	and     #$04
	beq     L1AB9
;
; if (entities[currentEntityId].vy < 2) {
;
	lda     _currentEntityId
	jsr     aslax3
	clc
	adc     #<(_entities)
	tay
	txa
	adc     #>(_entities)
	tax
	tya
	ldy     #$05
	jsr     ldaidx
	sec
	sbc     #$02
	bvc     L18EE
	eor     #$80
L18EE:	jpl     L1ABC
;
; entities[currentEntityId].vy += 1;
;
	ldx     #$00
	lda     _currentEntityId
	jsr     aslax3
	clc
	adc     #<(_entities)
	tay
	txa
	adc     #>(_entities)
	tax
	tya
	jsr     pushax
	ldy     #$05
	jsr     ldaidx
	clc
	adc     #$01
	jsr     staspidx
;
; } else if(entities[currentEntityId].vy > 2) {
;
	jmp     L1ABC
L1AB9:	lda     _currentEntityId
	jsr     aslax3
	clc
	adc     #<(_entities)
	tay
	txa
	adc     #>(_entities)
	tax
	tya
	ldy     #$05
	jsr     ldaidx
	sec
	sbc     #$03
	bvs     L18F6
	eor     #$80
L18F6:	asl     a
	ldx     #$00
	bcc     L1ABA
;
; entities[currentEntityId].vy -= 2;
;
	lda     _currentEntityId
	jsr     aslax3
	clc
	adc     #<(_entities)
	tay
	txa
	adc     #>(_entities)
	tax
	tya
	jsr     pushax
	ldy     #$05
	jsr     ldaidx
	sec
	sbc     #$02
	jsr     staspidx
;
; } else if(entities[currentEntityId].vy < -2) {
;
	jmp     L1ABC
L1ABA:	lda     _currentEntityId
	jsr     aslax3
	clc
	adc     #<(_entities)
	tay
	txa
	adc     #>(_entities)
	tax
	tya
	ldy     #$05
	jsr     ldaidx
	sec
	sbc     #$FE
	bvc     L18FE
	eor     #$80
L18FE:	asl     a
	ldx     #$00
	bcc     L1ABB
;
; entities[currentEntityId].vy += 2;
;
	lda     _currentEntityId
	jsr     aslax3
	clc
	adc     #<(_entities)
	tay
	txa
	adc     #>(_entities)
	tax
	tya
	jsr     pushax
	ldy     #$05
	jsr     ldaidx
	clc
	adc     #$02
	jsr     staspidx
;
; } else {
;
	jmp     L1ABC
;
; entities[currentEntityId].vy = 0;
;
L1ABB:	lda     _currentEntityId
	jsr     aslax3
	clc
	adc     #<(_entities)
	sta     ptr1
	txa
	adc     #>(_entities)
	sta     ptr1+1
	lda     #$00
	sta     (ptr1),y
;
; if(InputPort1 & BUTTON_LEFT) {
;
L1ABC:	lda     _InputPort1
	and     #$02
	beq     L1ABD
;
; if (entities[currentEntityId].vx > -2) {
;
	ldx     #$00
	lda     _currentEntityId
	jsr     aslax3
	clc
	adc     #<(_entities)
	tay
	txa
	adc     #>(_entities)
	tax
	tya
	ldy     #$04
	jsr     ldaidx
	sec
	sbc     #$FF
	bvs     L190B
	eor     #$80
L190B:	asl     a
	ldx     #$00
	jcc     L1AC1
;
; --entities[currentEntityId].vx;
;
	lda     _currentEntityId
	jsr     aslax3
	clc
	adc     #<(_entities)
	sta     ptr1
	txa
	adc     #>(_entities)
	sta     ptr1+1
	lda     (ptr1),y
	sec
	sbc     #$01
;
; } else if(InputPort1 & BUTTON_RIGHT) {
;
	jmp     L1AB7
L1ABD:	lda     _InputPort1
	ldx     #$00
	and     #$01
	beq     L1ABE
;
; if (entities[currentEntityId].vx < 2) {
;
	lda     _currentEntityId
	jsr     aslax3
	clc
	adc     #<(_entities)
	tay
	txa
	adc     #>(_entities)
	tax
	tya
	ldy     #$04
	jsr     ldaidx
	sec
	sbc     #$02
	bvc     L1914
	eor     #$80
L1914:	asl     a
	ldx     #$00
	jcc     L1AC1
;
; ++entities[currentEntityId].vx;
;
	lda     _currentEntityId
	jsr     aslax3
	clc
	adc     #<(_entities)
	sta     ptr1
	txa
	adc     #>(_entities)
	sta     ptr1+1
	lda     #$01
	clc
	adc     (ptr1),y
;
; } else if(entities[currentEntityId].vx > 2) {
;
	jmp     L1AB7
L1ABE:	lda     _currentEntityId
	jsr     aslax3
	clc
	adc     #<(_entities)
	tay
	txa
	adc     #>(_entities)
	tax
	tya
	ldy     #$04
	jsr     ldaidx
	sec
	sbc     #$03
	bvs     L191B
	eor     #$80
L191B:	asl     a
	ldx     #$00
	bcc     L1ABF
;
; entities[currentEntityId].vx -= 2;
;
	lda     _currentEntityId
	jsr     aslax3
	clc
	adc     #<(_entities)
	tay
	txa
	adc     #>(_entities)
	tax
	tya
	jsr     pushax
	ldy     #$04
	jsr     ldaidx
	sec
	sbc     #$02
	jsr     staspidx
;
; } else if(entities[currentEntityId].vx < -2) {
;
	jmp     L1927
L1ABF:	lda     _currentEntityId
	jsr     aslax3
	clc
	adc     #<(_entities)
	tay
	txa
	adc     #>(_entities)
	tax
	tya
	ldy     #$04
	jsr     ldaidx
	sec
	sbc     #$FE
	bvc     L1923
	eor     #$80
L1923:	asl     a
	ldx     #$00
	bcc     L1AC0
;
; entities[currentEntityId].vx += 2;
;
	lda     _currentEntityId
	jsr     aslax3
	clc
	adc     #<(_entities)
	tay
	txa
	adc     #>(_entities)
	tax
	tya
	jsr     pushax
	ldy     #$04
	jsr     ldaidx
	clc
	adc     #$02
	jsr     staspidx
;
; } else {
;
	jmp     L1927
;
; entities[currentEntityId].vx = 0;
;
L1AC0:	lda     _currentEntityId
	jsr     aslax3
	clc
	adc     #<(_entities)
	sta     ptr1
	txa
	adc     #>(_entities)
	sta     ptr1+1
	lda     #$00
L1AB7:	sta     (ptr1),y
;
; if(entities[currentEntityId].vy < 0 && entities[currentEntityId].y + entities[currentEntityId].vy - 16 > entities[currentEntityId].y) {
;
L1927:	ldx     #$00
L1AC1:	lda     _currentEntityId
	jsr     aslax3
	clc
	adc     #<(_entities)
	tay
	txa
	adc     #>(_entities)
	tax
	tya
	ldy     #$05
	jsr     ldaidx
	asl     a
	ldx     #$00
	jcc     L1AC4
	lda     _currentEntityId
	jsr     aslax3
	clc
	adc     #<(_entities)
	sta     ptr1
	txa
	adc     #>(_entities)
	sta     ptr1+1
	ldy     #$03
	lda     (ptr1),y
	jsr     pusha0
	lda     _currentEntityId
	jsr     aslax3
	clc
	adc     #<(_entities)
	tay
	txa
	adc     #>(_entities)
	tax
	tya
	ldy     #$05
	jsr     ldaidx
	jsr     tosaddax
	sec
	sbc     #$10
	bcs     L1931
	dex
L1931:	jsr     pushax
	ldx     #$00
	lda     _currentEntityId
	jsr     aslax3
	clc
	adc     #<(_entities)
	sta     ptr1
	txa
	adc     #>(_entities)
	sta     ptr1+1
	ldy     #$03
	lda     (ptr1),y
	jsr     tosicmp0
	beq     L1ACF
	bcc     L1ACF
;
; entities[currentEntityId].y = 16;
;
	ldx     #$00
	lda     _currentEntityId
	jsr     aslax3
	clc
	adc     #<(_entities)
	sta     ptr1
	txa
	adc     #>(_entities)
	sta     ptr1+1
	lda     #$10
	ldy     #$03
	sta     (ptr1),y
;
; entities[currentEntityId].vy = 0;
;
	ldx     #$00
	lda     _currentEntityId
	jsr     aslax3
	clc
	adc     #<(_entities)
	sta     ptr1
	txa
	adc     #>(_entities)
	sta     ptr1+1
	lda     #$00
	ldy     #$05
	sta     (ptr1),y
;
; if(entities[currentEntityId].y + entities[currentEntityId].vy > 218) {
;
L1ACF:	ldx     #$00
L1AC4:	lda     _currentEntityId
	jsr     aslax3
	clc
	adc     #<(_entities)
	sta     ptr1
	txa
	adc     #>(_entities)
	sta     ptr1+1
	ldy     #$03
	lda     (ptr1),y
	jsr     pusha0
	lda     _currentEntityId
	jsr     aslax3
	clc
	adc     #<(_entities)
	tay
	txa
	adc     #>(_entities)
	tax
	tya
	ldy     #$05
	jsr     ldaidx
	jsr     tosaddax
	cmp     #$DB
	txa
	sbc     #$00
	ldx     #$00
	bcc     L1AC5
;
; entities[currentEntityId].y = 218;
;
	lda     _currentEntityId
	jsr     aslax3
	clc
	adc     #<(_entities)
	sta     ptr1
	txa
	adc     #>(_entities)
	sta     ptr1+1
	lda     #$DA
	ldy     #$03
	sta     (ptr1),y
;
; entities[currentEntityId].vy = 0;
;
	ldx     #$00
	lda     _currentEntityId
	jsr     aslax3
	clc
	adc     #<(_entities)
	sta     ptr1
	txa
	adc     #>(_entities)
	sta     ptr1+1
	lda     #$00
	ldy     #$05
	sta     (ptr1),y
;
; if(entities[currentEntityId].vx < 0 && entities[currentEntityId].x + entities[currentEntityId].vx > entities[currentEntityId].x) {
;
	tax
L1AC5:	lda     _currentEntityId
	jsr     aslax3
	clc
	adc     #<(_entities)
	tay
	txa
	adc     #>(_entities)
	tax
	tya
	ldy     #$04
	jsr     ldaidx
	asl     a
	ldx     #$00
	jcc     L1AC8
	lda     _currentEntityId
	jsr     aslax3
	clc
	adc     #<(_entities)
	sta     ptr1
	txa
	adc     #>(_entities)
	sta     ptr1+1
	ldy     #$02
	lda     (ptr1),y
	jsr     pusha0
	lda     _currentEntityId
	jsr     aslax3
	clc
	adc     #<(_entities)
	tay
	txa
	adc     #>(_entities)
	tax
	tya
	ldy     #$04
	jsr     ldaidx
	jsr     tosaddax
	jsr     pushax
	ldx     #$00
	lda     _currentEntityId
	jsr     aslax3
	clc
	adc     #<(_entities)
	sta     ptr1
	txa
	adc     #>(_entities)
	sta     ptr1+1
	ldy     #$02
	lda     (ptr1),y
	jsr     tosicmp0
	beq     L1AD0
	bcc     L1AD0
;
; entities[currentEntityId].x = 0;
;
	ldx     #$00
	lda     _currentEntityId
	jsr     aslax3
	clc
	adc     #<(_entities)
	sta     ptr1
	txa
	adc     #>(_entities)
	sta     ptr1+1
	lda     #$00
	ldy     #$02
	sta     (ptr1),y
;
; entities[currentEntityId].vx = 0;
;
	tax
	lda     _currentEntityId
	jsr     aslax3
	clc
	adc     #<(_entities)
	sta     ptr1
	txa
	adc     #>(_entities)
	sta     ptr1+1
	lda     #$00
	ldy     #$04
	sta     (ptr1),y
;
; if(entities[currentEntityId].x + entities[currentEntityId].vx > 240) {
;
L1AD0:	ldx     #$00
L1AC8:	lda     _currentEntityId
	jsr     aslax3
	clc
	adc     #<(_entities)
	sta     ptr1
	txa
	adc     #>(_entities)
	sta     ptr1+1
	ldy     #$02
	lda     (ptr1),y
	jsr     pusha0
	lda     _currentEntityId
	jsr     aslax3
	clc
	adc     #<(_entities)
	tay
	txa
	adc     #>(_entities)
	tax
	tya
	ldy     #$04
	jsr     ldaidx
	jsr     tosaddax
	cmp     #$F1
	txa
	sbc     #$00
	ldx     #$00
	bcc     L1AC9
;
; entities[currentEntityId].x = 240;
;
	lda     _currentEntityId
	jsr     aslax3
	clc
	adc     #<(_entities)
	sta     ptr1
	txa
	adc     #>(_entities)
	sta     ptr1+1
	lda     #$F0
	ldy     #$02
	sta     (ptr1),y
;
; entities[currentEntityId].vx = 0;
;
	ldx     #$00
	lda     _currentEntityId
	jsr     aslax3
	clc
	adc     #<(_entities)
	sta     ptr1
	txa
	adc     #>(_entities)
	sta     ptr1+1
	lda     #$00
	ldy     #$04
	sta     (ptr1),y
;
; entities[currentEntityId].x += entities[currentEntityId].vx;
;
	tax
L1AC9:	lda     _currentEntityId
	jsr     aslax3
	clc
	adc     #<(_entities)
	tay
	txa
	adc     #>(_entities)
	tax
	tya
	jsr     pushax
	sta     ptr1
	stx     ptr1+1
	ldy     #$02
	lda     (ptr1),y
	jsr     pusha0
	lda     _currentEntityId
	jsr     aslax3
	clc
	adc     #<(_entities)
	tay
	txa
	adc     #>(_entities)
	tax
	tya
	ldy     #$04
	jsr     ldaidx
	jsr     tosaddax
	ldy     #$02
	jsr     staspidx
;
; entities[currentEntityId].y += entities[currentEntityId].vy;
;
	ldx     #$00
	lda     _currentEntityId
	jsr     aslax3
	clc
	adc     #<(_entities)
	tay
	txa
	adc     #>(_entities)
	tax
	tya
	jsr     pushax
	sta     ptr1
	stx     ptr1+1
	ldy     #$03
	lda     (ptr1),y
	jsr     pusha0
	lda     _currentEntityId
	jsr     aslax3
	clc
	adc     #<(_entities)
	tay
	txa
	adc     #>(_entities)
	tax
	tya
	ldy     #$05
	jsr     ldaidx
	jsr     tosaddax
	ldy     #$03
	jsr     staspidx
;
; if((InputPort1 & BUTTON_B) && !(InputPort1Prev & BUTTON_B)) {
;
	lda     _InputPort1
	ldx     #$00
	and     #$40
	beq     L1ACD
	lda     _InputPort1Prev
	and     #$40
	bne     L1ACD
;
; spawnBullet(entities[currentEntityId].x, entities[currentEntityId].y - 8);
;
	lda     _currentEntityId
	jsr     aslax3
	clc
	adc     #<(_entities)
	sta     ptr1
	txa
	adc     #>(_entities)
	sta     ptr1+1
	ldy     #$02
	lda     (ptr1),y
	jsr     pusha
	ldx     #$00
	lda     _currentEntityId
	jsr     aslax3
	clc
	adc     #<(_entities)
	sta     ptr1
	txa
	adc     #>(_entities)
	sta     ptr1+1
	ldy     #$03
	lda     (ptr1),y
	sec
	sbc     #$08
	jsr     _spawnBullet
;
; if(entities[currentEntityId].vx > 2) {
;
	ldx     #$00
L1ACD:	lda     _currentEntityId
	jsr     aslax3
	clc
	adc     #<(_entities)
	tay
	txa
	adc     #>(_entities)
	tax
	tya
	ldy     #$04
	jsr     ldaidx
	sec
	sbc     #$03
	bvs     L1973
	eor     #$80
L1973:	asl     a
	ldx     #$00
	bcc     L1ACE
;
; drawMetaSprite(entities[currentEntityId].x, entities[currentEntityId].y, playerSpriteFrames[((FrameCount >> 3) & 0x01) + 4]);
;
	jsr     decsp2
	lda     _currentEntityId
	jsr     aslax3
	clc
	adc     #<(_entities)
	sta     ptr1
	txa
	adc     #>(_entities)
	sta     ptr1+1
	ldy     #$02
	lda     (ptr1),y
	dey
	sta     (sp),y
	ldx     #$00
	lda     _currentEntityId
	jsr     aslax3
	clc
	adc     #<(_entities)
	sta     ptr1
	txa
	adc     #>(_entities)
	sta     ptr1+1
	ldy     #$03
	lda     (ptr1),y
	ldy     #$00
	sta     (sp),y
	lda     _FrameCount
	lsr     a
	lsr     a
	lsr     a
	ldx     #$00
	and     #$01
	clc
	adc     #$04
	bcc     L197D
	inx
L197D:	jsr     pushax
	lda     #$11
	jsr     tosmula0
	clc
	adc     #<(_playerSpriteFrames)
	tay
	txa
	adc     #>(_playerSpriteFrames)
	tax
	tya
	jmp     _drawMetaSprite
;
; } else if(entities[currentEntityId].vx < -2) {
;
L1ACE:	lda     _currentEntityId
	jsr     aslax3
	clc
	adc     #<(_entities)
	tay
	txa
	adc     #>(_entities)
	tax
	tya
	ldy     #$04
	jsr     ldaidx
	sec
	sbc     #$FE
	bvc     L1982
	eor     #$80
L1982:	bpl     L197F
;
; drawMetaSprite(entities[currentEntityId].x, entities[currentEntityId].y, playerSpriteFrames[((FrameCount >> 3) & 0x01) + 2]);
;
	jsr     decsp2
	ldx     #$00
	lda     _currentEntityId
	jsr     aslax3
	clc
	adc     #<(_entities)
	sta     ptr1
	txa
	adc     #>(_entities)
	sta     ptr1+1
	ldy     #$02
	lda     (ptr1),y
	dey
	sta     (sp),y
	ldx     #$00
	lda     _currentEntityId
	jsr     aslax3
	clc
	adc     #<(_entities)
	sta     ptr1
	txa
	adc     #>(_entities)
	sta     ptr1+1
	ldy     #$03
	lda     (ptr1),y
	ldy     #$00
	sta     (sp),y
	lda     _FrameCount
	lsr     a
	lsr     a
	lsr     a
	ldx     #$00
	and     #$01
	clc
	adc     #$02
	bcc     L198C
	inx
L198C:	jsr     pushax
	lda     #$11
	jsr     tosmula0
	clc
	adc     #<(_playerSpriteFrames)
	tay
	txa
	adc     #>(_playerSpriteFrames)
	tax
	tya
	jmp     _drawMetaSprite
;
; drawMetaSprite(entities[currentEntityId].x, entities[currentEntityId].y, playerSpriteFrames[((FrameCount >> 3) & 0x01)]);
;
L197F:	jsr     decsp2
	ldx     #$00
	lda     _currentEntityId
	jsr     aslax3
	clc
	adc     #<(_entities)
	sta     ptr1
	txa
	adc     #>(_entities)
	sta     ptr1+1
	ldy     #$02
	lda     (ptr1),y
	dey
	sta     (sp),y
	ldx     #$00
	lda     _currentEntityId
	jsr     aslax3
	clc
	adc     #<(_entities)
	sta     ptr1
	txa
	adc     #>(_entities)
	sta     ptr1+1
	ldy     #$03
	lda     (ptr1),y
	ldy     #$00
	sta     (sp),y
	lda     _FrameCount
	lsr     a
	lsr     a
	lsr     a
	and     #$01
	jsr     pusha0
	lda     #$11
	jsr     tosmula0
	clc
	adc     #<(_playerSpriteFrames)
	tay
	txa
	adc     #>(_playerSpriteFrames)
	tax
	tya
	jmp     _drawMetaSprite

.endproc

; ---------------------------------------------------------------
; void __near__ loadPalette (__near__ const unsigned char *)
; ---------------------------------------------------------------

.segment	"CODE"

.proc	_loadPalette: near

.segment	"CODE"

;
; void loadPalette(const uint8_t *pal) {
;
	jsr     pushax
;
; PPU.vram.address = 0x3f;
;
	lda     #$3F
	sta     $2006
;
; PPU.vram.address = 0x00;
;
	lda     #$00
	sta     $2006
;
; for ( i = 0; i < 32; ++i ) {
;
	sta     _i
	sta     _i+1
L199E:	lda     _i+1
	cmp     #$00
	bne     L19A5
	lda     _i
	cmp     #$20
L19A5:	bcs     L199F
;
; PPU.vram.data = pal[i];
;
	ldy     #$01
	lda     (sp),y
	tax
	dey
	lda     (sp),y
	clc
	adc     _i
	sta     ptr1
	txa
	adc     _i+1
	sta     ptr1+1
	lda     (ptr1),y
	sta     $2007
;
; for ( i = 0; i < 32; ++i ) {
;
	inc     _i
	bne     L199E
	inc     _i+1
	jmp     L199E
;
; }
;
L199F:	jmp     incsp2

.endproc

; ---------------------------------------------------------------
; void __near__ main (void)
; ---------------------------------------------------------------

.segment	"CODE"

.proc	_main: near

.segment	"CODE"

;
; APU.status = 0x0F;
;
	lda     #$0F
	sta     $4015
;
; for(i = 0; i < 64; i++) {
;
	lda     #$00
	sta     _i
	sta     _i+1
L19B0:	lda     _i+1
	cmp     #$00
	bne     L19B7
	lda     _i
	cmp     #$40
L19B7:	bcs     L19B1
;
; sprites[i].y = 255;
;
	lda     _i
	ldx     _i+1
	jsr     aslax2
	clc
	adc     #<(_sprites)
	sta     ptr1
	txa
	adc     #>(_sprites)
	sta     ptr1+1
	lda     #$FF
	ldy     #$00
	sta     (ptr1),y
;
; for(i = 0; i < 64; i++) {
;
	lda     _i
	ldx     _i+1
	clc
	adc     #$01
	bcc     L19B9
	inx
L19B9:	sta     _i
	stx     _i+1
	jmp     L19B0
;
; bankswitch(1);
;
L19B1:	lda     #$01
	jsr     _bankswitch
;
; loadPalette(titlePalette);
;
	lda     #<(_titlePalette)
	ldx     #>(_titlePalette)
	jsr     _loadPalette
;
; copyTitleScreen();
;
	jsr     _copyTitleScreen
;
; Scroll = 239;
;
	ldx     #$00
	lda     #$EF
	sta     _Scroll
	stx     _Scroll+1
;
; timer = 0;
;
	txa
	sta     _timer
	sta     _timer+1
;
; VRAMUpdateReady = 1;
;
	lda     #$01
	sta     _VRAMUpdateReady
;
; PPU.control = PPUCTRL_NAMETABLE_0 | PPUCTRL_INC_1_HORIZ | PPUCTRL_BPATTERN_0 | PPUCTRL_SPATTERN_1 | PPUCTRL_NMI_ON;
;
	lda     #$88
	sta     $2000
;
; while (!endLoop) {
;
	jmp     L19CE
;
; WaitFrame();
;
L19CC:	jsr     _WaitFrame
;
; if(timer > 32) {
;
	lda     _timer
	cmp     #$21
	lda     _timer+1
	sbc     #$00
	bcc     L19D1
;
; Scroll = 0;
;
	lda     #$00
	sta     _Scroll
	sta     _Scroll+1
;
; PPU.vram.address = 0x3f;
;
	lda     #$3F
	sta     $2006
;
; PPU.vram.address = 0x0B;
;
	lda     #$0B
	sta     $2006
;
; PPU.vram.data = (((FrameCount >> 2) & 0x03) << 4) + 0x06;
;
	lda     _FrameCount
	lsr     a
	lsr     a
	and     #$03
	asl     a
	asl     a
	asl     a
	asl     a
	clc
	adc     #$06
	sta     $2007
;
; PPU.vram.address = 0x00;
;
	lda     #$00
	sta     $2006
;
; PPU.vram.address = 0x00;
;
	sta     $2006
;
; if((InputPort1 & BUTTON_START) && !(InputPort1Prev & BUTTON_START)) {
;
	lda     _InputPort1
	and     #$10
	beq     L19CE
	lda     _InputPort1Prev
	and     #$10
	bne     L19CE
;
; endLoop = 1;
;
	lda     #$01
	sta     _endLoop
;
; } else {
;
	jmp     L19CE
;
; ++timer;
;
L19D1:	inc     _timer
	bne     L19F2
	inc     _timer+1
;
; if(Scroll > 0) 
;
L19F2:	lda     _Scroll
	ora     _Scroll+1
	beq     L19F3
;
; Scroll -= 16;
;
	lda     _Scroll
	sec
	sbc     #$10
	sta     _Scroll
	bcs     L19F3
	dec     _Scroll+1
;
; if(Scroll > 0x100)
;
L19F3:	lda     _Scroll
	cmp     #$01
	lda     _Scroll+1
	sbc     #$01
	bcc     L19CE
;
; Scroll = 0;
;
	lda     #$00
	sta     _Scroll
	sta     _Scroll+1
;
; while (!endLoop) {
;
L19CE:	lda     _endLoop
	jeq     L19CC
;
; WaitFrame();
;
	jsr     _WaitFrame
;
; PPU.control = PPUCTRL_NAMETABLE_0 | PPUCTRL_INC_1_HORIZ | PPUCTRL_BPATTERN_0 | PPUCTRL_SPATTERN_1 | PPUCTRL_NMI_OFF;
;
	lda     #$08
	sta     $2000
;
; PPU.mask = 0;
;
	lda     #$00
	sta     $2001
;
; bankswitch(0);
;
	jsr     _bankswitch
;
; loadPalette(mapPalette);
;
	lda     #<(_mapPalette)
	ldx     #>(_mapPalette)
	jsr     _loadPalette
;
; initEntityList();
;
	jsr     _initEntityList
;
; fillBackground();
;
	jsr     _fillBackground
;
; playerId = popEntity(&freeEntityList);
;
	lda     #<(_freeEntityList)
	ldx     #>(_freeEntityList)
	jsr     _popEntity
	sta     _playerId
;
; pushEntity(playerId, &entityList);
;
	jsr     pusha
	lda     #<(_entityList)
	ldx     #>(_entityList)
	jsr     _pushEntity
;
; entities[playerId].x = 64;
;
	ldx     #$00
	lda     _playerId
	jsr     aslax3
	clc
	adc     #<(_entities)
	sta     ptr1
	txa
	adc     #>(_entities)
	sta     ptr1+1
	lda     #$40
	ldy     #$02
	sta     (ptr1),y
;
; entities[playerId].y = 128;
;
	ldx     #$00
	lda     _playerId
	jsr     aslax3
	clc
	adc     #<(_entities)
	sta     ptr1
	txa
	adc     #>(_entities)
	sta     ptr1+1
	lda     #$80
	iny
	sta     (ptr1),y
;
; entities[playerId].vx = 0;
;
	ldx     #$00
	lda     _playerId
	jsr     aslax3
	clc
	adc     #<(_entities)
	sta     ptr1
	txa
	adc     #>(_entities)
	sta     ptr1+1
	lda     #$00
	iny
	sta     (ptr1),y
;
; entities[playerId].vy = 0;
;
	tax
	lda     _playerId
	jsr     aslax3
	clc
	adc     #<(_entities)
	sta     ptr1
	txa
	adc     #>(_entities)
	sta     ptr1+1
	lda     #$00
	iny
	sta     (ptr1),y
;
; entities[playerId].health = 255;
;
	tax
	lda     _playerId
	jsr     aslax3
	clc
	adc     #<(_entities)
	sta     ptr1
	txa
	adc     #>(_entities)
	sta     ptr1+1
	lda     #$FF
	iny
	sta     (ptr1),y
;
; entities[playerId].kind = 0;
;
	ldx     #$00
	lda     _playerId
	jsr     aslax3
	clc
	adc     #<(_entities)
	sta     ptr1
	txa
	adc     #>(_entities)
	sta     ptr1+1
	lda     #$00
	iny
	sta     (ptr1),y
;
; VRAMUpdateReady = 1;
;
	lda     #$01
	sta     _VRAMUpdateReady
;
; PPU.control = PPUCTRL_NAMETABLE_0 | PPUCTRL_INC_1_HORIZ | PPUCTRL_BPATTERN_0 | PPUCTRL_SPATTERN_1 | PPUCTRL_NMI_ON;
;
	lda     #$88
	sta     $2000
;
; Scroll = 0x108;
;
	ldx     #$01
	lda     #$08
	sta     _Scroll
	stx     _Scroll+1
;
; endLoop = 0;
;
	lda     #$00
	sta     _endLoop
;
; while (!endLoop) {
;
	jmp     L1A2E
;
; WaitFrame();
;
L1A2C:	jsr     _WaitFrame
;
; currentMetaSpriteId = 0; // might be done in nmi?
;
	lda     #$00
	sta     _currentMetaSpriteId
;
; scrollIncrement = 0;
;
	sta     _scrollIncrement
;
; if(!(FrameCount & 0x01) && mapCurrentLine != 0xFFFF) { // stop when mapCurrentLine == -1
;
	lda     _FrameCount
	ldx     #$00
	and     #$01
	jne     L1ADB
	lda     _mapCurrentLine+1
	cmp     #$FF
	bne     L1AD7
	lda     _mapCurrentLine
	cmp     #$FF
	jeq     L1ADB
;
; if(Scroll > 0) {
;
L1AD7:	lda     _Scroll
	ora     _Scroll+1
	beq     L1A3B
;
; --Scroll;
;
	lda     _Scroll
	sec
	sbc     #$01
	sta     _Scroll
	bcs     L1A3F
	dec     _Scroll+1
;
; scrollIncrement = 1;
;
L1A3F:	lda     #$01
	sta     _scrollIncrement
;
; if(Scroll == 255) {
;
	lda     _Scroll+1
	bne     L1A47
	lda     _Scroll
	cmp     #$FF
	bne     L1A47
;
; } else {
;
	jmp     L1ADF
;
; Scroll = 256 + 239;
;
L1A3B:	inx
L1ADF:	lda     #$EF
	sta     _Scroll
	stx     _Scroll+1
;
; if((Scroll & 0x0F) == 0x0F && mapCurrentLine != 0xFFFF) {
;
L1A47:	lda     _Scroll
	and     #$0F
	cmp     #$0F
	bne     L1A4A
	lda     _mapCurrentLine+1
	cmp     #$FF
	bne     L1AD9
	lda     _mapCurrentLine
	cmp     #$FF
	beq     L1A4A
;
; --mapCurrentLine;
;
L1AD9:	lda     _mapCurrentLine
	sec
	sbc     #$01
	sta     _mapCurrentLine
	bcs     L1A52
	dec     _mapCurrentLine+1
;
; copyBgLine(map, mapCurrentLine);
;
L1A52:	lda     #<(_map)
	ldx     #>(_map)
	jsr     pushax
	lda     _mapCurrentLine
	ldx     _mapCurrentLine+1
	jsr     _copyBgLine
;
; BGDestAddr = (Scroll > 240 ? 0x2800 : 0x2000) + (((Scroll & 0xFF) >> 4) << 6);
;
	lda     _Scroll
	cmp     #$F1
	lda     _Scroll+1
	sbc     #$00
	lda     #$00
	bcc     L1A59
	ldx     #$28
	jmp     L1ADA
L1A59:	ldx     #$20
L1ADA:	sta     ptr1
	stx     ptr1+1
	lda     _Scroll
	ldx     #$00
	lsr     a
	lsr     a
	lsr     a
	lsr     a
	jsr     shlax4
	jsr     shlax2
	clc
	adc     ptr1
	sta     _BGDestAddr
	txa
	adc     ptr1+1
	sta     _BGDestAddr+1
;
; if((Scroll & 0x1F) == 0) {
;
L1A4A:	lda     _Scroll
	ldx     #$00
	and     #$1F
	bne     L1ADB
;
; spawnKnight(40, 16);
;
	lda     #$28
	jsr     pusha
	lda     #$10
	jsr     _spawnKnight
;
; currentEntityId = entityList;
;
	ldx     #$00
L1ADB:	lda     _entityList
	sta     _currentEntityId
;
; while(currentEntityId != 0xFF) {
;
	jmp     L1ADD
;
; uint8_t next = entities[currentEntityId].next;
;
L1ADC:	lda     _currentEntityId
	jsr     aslax3
	clc
	adc     #<(_entities)
	sta     ptr1
	txa
	adc     #>(_entities)
	sta     ptr1+1
	ldy     #$01
	lda     (ptr1),y
	jsr     pusha
;
; switch(entities[currentEntityId].kind) {
;
	ldx     #$00
	lda     _currentEntityId
	jsr     aslax3
	clc
	adc     #<(_entities)
	sta     ptr1
	txa
	adc     #>(_entities)
	sta     ptr1+1
	ldy     #$07
	lda     (ptr1),y
;
; }
;
	beq     L1A74
	cmp     #$01
	beq     L1A77
	jmp     L1A72
;
; playerUpdate();
;
L1A74:	jsr     _playerUpdate
;
; break;
;
	jmp     L1A72
;
; knightUpdate();
;
L1A77:	jsr     _knightUpdate
;
; currentEntityId = next;
;
L1A72:	ldy     #$00
	lda     (sp),y
	sta     _currentEntityId
;
; }
;
	jsr     incsp1
;
; while(currentEntityId != 0xFF) {
;
	ldx     #$00
L1ADD:	lda     _currentEntityId
	cmp     #$FF
	bne     L1ADC
;
; for(i = 0; i < 8; i++) {
;
	txa
	sta     _i
	sta     _i+1
L1A7C:	lda     _i+1
	cmp     #$00
	bne     L1A83
	lda     _i
	cmp     #$08
L1A83:	bcs     L1A7D
;
; if(sprites[BULLET_SPRITE + i].y < 240) {
;
	lda     _i
	ldx     _i+1
	clc
	adc     #$38
	bcc     L1A89
	inx
L1A89:	jsr     aslax2
	sta     ptr1
	txa
	clc
	adc     #>(_sprites)
	sta     ptr1+1
	ldy     #<(_sprites)
	lda     (ptr1),y
	cmp     #$F0
	bcs     L1A7E
;
; sprites[BULLET_SPRITE + i].y -= 4; 
;
	lda     _i
	ldx     _i+1
	clc
	adc     #$38
	bcc     L1A8C
	inx
L1A8C:	jsr     aslax2
	clc
	adc     #<(_sprites)
	sta     ptr1
	txa
	adc     #>(_sprites)
	sta     ptr1+1
	ldy     #$00
	lda     (ptr1),y
	sec
	sbc     #$04
	sta     (ptr1),y
;
; for(i = 0; i < 8; i++) {
;
L1A7E:	lda     _i
	ldx     _i+1
	clc
	adc     #$01
	bcc     L1A85
	inx
L1A85:	sta     _i
	stx     _i+1
	jmp     L1A7C
;
; for(i = currentMetaSpriteId; i < BULLET_SPRITE; i++) {
;
L1A7D:	lda     _currentMetaSpriteId
	sta     _i
	lda     #$00
	sta     _i+1
L1A8E:	lda     _i+1
	cmp     #$00
	bne     L1A95
	lda     _i
	cmp     #$38
L1A95:	bcs     L1A8F
;
; sprites[i].y = 240;
;
	lda     _i
	ldx     _i+1
	jsr     aslax2
	clc
	adc     #<(_sprites)
	sta     ptr1
	txa
	adc     #>(_sprites)
	sta     ptr1+1
	lda     #$F0
	ldy     #$00
	sta     (ptr1),y
;
; for(i = currentMetaSpriteId; i < BULLET_SPRITE; i++) {
;
	lda     _i
	ldx     _i+1
	clc
	adc     #$01
	bcc     L1A97
	inx
L1A97:	sta     _i
	stx     _i+1
	jmp     L1A8E
;
; VRAMUpdateReady = 1;
;
L1A8F:	lda     #$01
	sta     _VRAMUpdateReady
;
; while (!endLoop) {
;
L1A2E:	lda     _endLoop
	jeq     L1A2C
;
; };
;
	rts

.endproc

