;
; File generated by cc65 v 2.15
;
	.fopt		compiler,"cc65 v 2.15"
	.setcpu		"6502"
	.smart		on
	.autoimport	on
	.case		on
	.debuginfo	off
	.importzp	sp, sreg, regsave, regbank
	.importzp	tmp1, tmp2, tmp3, tmp4, ptr1, ptr2, ptr3, ptr4
	.macpack	longbranch
	.forceimport	__STARTUP__
	.importzp	_InputPort1
	.importzp	_InputPort1Prev
	.importzp	_VRAMUpdateReady
	.importzp	_Scroll
	.import		_WaitFrame
	.export		_i
	.export		_x
	.export		_y
	.export		_mapX
	.export		_mapY
	.export		_tileIndex
	.export		_score
	.export		_player
	.export		_ScoreText
	.export		_PALETTE
	.export		_mapWidth
	.export		_map
	.export		_drawStatus
	.export		_drawBackground
	.export		_main

.segment	"DATA"

_score:
	.word	$152D

.segment	"RODATA"

_ScoreText:
	.byte	$53,$63,$6F,$72,$65,$00
_PALETTE:
	.byte	$0F
	.byte	$00
	.byte	$10
	.byte	$20
	.byte	$0F
	.byte	$11
	.byte	$21
	.byte	$31
	.byte	$0F
	.byte	$15
	.byte	$25
	.byte	$35
	.byte	$0F
	.byte	$19
	.byte	$29
	.byte	$39
	.byte	$0F
	.byte	$06
	.byte	$15
	.byte	$36
	.byte	$0F
	.byte	$11
	.byte	$21
	.byte	$31
	.byte	$0F
	.byte	$15
	.byte	$25
	.byte	$35
	.byte	$0F
	.byte	$19
	.byte	$29
	.byte	$39
_mapWidth:
	.byte	$20
_map:
	.byte	$00
	.byte	$01
	.byte	$02
	.byte	$03
	.byte	$00
	.byte	$00
	.byte	$00
	.byte	$00
	.byte	$00
	.byte	$00
	.byte	$00
	.byte	$00
	.byte	$00
	.byte	$00
	.byte	$00
	.byte	$00
	.byte	$00
	.byte	$00
	.byte	$00
	.byte	$00
	.byte	$00
	.byte	$00
	.byte	$00
	.byte	$00
	.byte	$00
	.byte	$00
	.byte	$00
	.byte	$00
	.byte	$00
	.byte	$00
	.byte	$00
	.byte	$00
	.byte	$00
	.byte	$04
	.byte	$00
	.byte	$00
	.byte	$00
	.byte	$00
	.byte	$00
	.byte	$00
	.byte	$00
	.byte	$00
	.byte	$00
	.byte	$00
	.byte	$00
	.byte	$00
	.byte	$00
	.byte	$00
	.byte	$00
	.byte	$00
	.byte	$00
	.byte	$00
	.byte	$00
	.byte	$00
	.byte	$00
	.byte	$00
	.byte	$00
	.byte	$00
	.byte	$00
	.byte	$00
	.byte	$00
	.byte	$00
	.byte	$00
	.byte	$00
	.byte	$00
	.byte	$00
	.byte	$00
	.byte	$00
	.byte	$00
	.byte	$00
	.byte	$00
	.byte	$00
	.byte	$00
	.byte	$00
	.byte	$00
	.byte	$00
	.byte	$00
	.byte	$00
	.byte	$00
	.byte	$00
	.byte	$00
	.byte	$00
	.byte	$00
	.byte	$00
	.byte	$00
	.byte	$00
	.byte	$00
	.byte	$00
	.byte	$00
	.byte	$00
	.byte	$00
	.byte	$00
	.byte	$00
	.byte	$00
	.byte	$00
	.byte	$00
	.byte	$00
	.byte	$00
	.byte	$00
	.byte	$00
	.byte	$00
	.byte	$00
	.byte	$00
	.byte	$00
	.byte	$00
	.byte	$00
	.byte	$00
	.byte	$00
	.byte	$00
	.byte	$00
	.byte	$00
	.byte	$00
	.byte	$00
	.byte	$00
	.byte	$00
	.byte	$00
	.byte	$00
	.byte	$00
	.byte	$00
	.byte	$00
	.byte	$00
	.byte	$00
	.byte	$00
	.byte	$00
	.byte	$00
	.byte	$00
	.byte	$00
	.byte	$00
	.byte	$00
	.byte	$00
	.byte	$00
	.byte	$00
	.byte	$00
	.byte	$00
	.byte	$00
	.byte	$00
	.byte	$00
	.byte	$00
	.byte	$00
	.byte	$00
	.byte	$00
	.byte	$00
	.byte	$00
	.byte	$00
	.byte	$00
	.byte	$00
	.byte	$00
	.byte	$00
	.byte	$00
	.byte	$00
	.byte	$00
	.byte	$00
	.byte	$00
	.byte	$00
	.byte	$00
	.byte	$00
	.byte	$00
	.byte	$00
	.byte	$00
	.byte	$00
	.byte	$00
	.byte	$00
	.byte	$00
	.byte	$00
	.byte	$00
	.byte	$00
	.byte	$00
	.byte	$00
	.byte	$00
	.byte	$00
	.byte	$00
	.byte	$00
	.byte	$00
	.byte	$00
	.byte	$00
	.byte	$00
	.byte	$00
	.byte	$00
	.byte	$00
	.byte	$00
	.byte	$00
	.byte	$00
	.byte	$00
	.byte	$00
	.byte	$00
	.byte	$00
	.byte	$00
	.byte	$00
	.byte	$00
	.byte	$00
	.byte	$00
	.byte	$00
	.byte	$00
	.byte	$00
	.byte	$00
	.byte	$00
	.byte	$00
	.byte	$00
	.byte	$00
	.byte	$00
	.byte	$00
	.byte	$00
	.byte	$00
	.byte	$00
	.byte	$00
	.byte	$00
	.byte	$00
	.byte	$00
	.byte	$00
	.byte	$00
	.byte	$00
	.byte	$00
	.byte	$00
	.byte	$00
	.byte	$00
	.byte	$00
	.byte	$00
	.byte	$00
	.byte	$00
	.byte	$00
	.byte	$00
	.byte	$00
	.byte	$00
	.byte	$00
	.byte	$00
	.byte	$00
	.byte	$00
	.byte	$00
	.byte	$00
	.byte	$00
	.byte	$00
	.byte	$00
	.byte	$00
	.byte	$00
	.byte	$00
	.byte	$00
	.byte	$00
	.byte	$00
	.byte	$00
	.byte	$00
	.byte	$00
	.byte	$00
	.byte	$00
	.byte	$00
	.byte	$00
	.byte	$00
	.byte	$00
	.byte	$00
	.byte	$00
	.byte	$00
	.byte	$00
	.byte	$00
	.byte	$00
	.byte	$00
	.byte	$00
	.byte	$00
	.byte	$00
	.byte	$00
	.byte	$00
	.byte	$00
	.byte	$00
	.byte	$00
	.byte	$00
	.byte	$00
	.byte	$00
	.byte	$00
	.byte	$00
	.byte	$00
	.byte	$00
	.byte	$00
	.byte	$00
	.byte	$00
	.byte	$00
	.byte	$00
	.byte	$00
	.byte	$00
	.byte	$00
	.byte	$00
	.byte	$00
	.byte	$00
	.byte	$00
	.byte	$00
	.byte	$00
	.byte	$00
	.byte	$00
	.byte	$00
	.byte	$00
	.byte	$00
	.byte	$00
	.byte	$00
	.byte	$00
	.byte	$00
	.byte	$00
	.byte	$00
	.byte	$00
	.byte	$00
	.byte	$00
	.byte	$00
	.byte	$00
	.byte	$00
	.byte	$00
	.byte	$00
	.byte	$00
	.byte	$00
	.byte	$00
	.byte	$00
	.byte	$00
	.byte	$00
	.byte	$00
	.byte	$00
	.byte	$00
	.byte	$00
	.byte	$00
	.byte	$00
	.byte	$00
	.byte	$00
	.byte	$00
	.byte	$00
	.byte	$00
	.byte	$00
	.byte	$00
	.byte	$00
	.byte	$00
	.byte	$00
	.byte	$00
	.byte	$00
	.byte	$00
	.byte	$00
	.byte	$00
	.byte	$00
	.byte	$00
	.byte	$00
	.byte	$00
	.byte	$00
	.byte	$00
	.byte	$00
	.byte	$00
	.byte	$00
	.byte	$00
	.byte	$00
	.byte	$00
	.byte	$00
	.byte	$00
	.byte	$00
	.byte	$00
	.byte	$00
	.byte	$00
	.byte	$00
	.byte	$00
	.byte	$00
	.byte	$00
	.byte	$00
	.byte	$00
	.byte	$00
	.byte	$00
	.byte	$00
	.byte	$00
	.byte	$00
	.byte	$00
	.byte	$00
	.byte	$00
	.byte	$00
	.byte	$00
	.byte	$00
	.byte	$00
	.byte	$00
	.byte	$00
	.byte	$00
	.byte	$00
	.byte	$00
	.byte	$00
	.byte	$00
	.byte	$00
	.byte	$00
	.byte	$00
	.byte	$00
	.byte	$00
	.byte	$00
	.byte	$00
	.byte	$00
	.byte	$00
	.byte	$00
	.byte	$00
	.byte	$00

.segment	"BSS"

.segment	"ZEROPAGE"
_i:
	.res	2,$00
_x:
	.res	2,$00
_y:
	.res	2,$00
_mapX:
	.res	2,$00
_mapY:
	.res	2,$00
_tileIndex:
	.res	2,$00
.segment	"BSS"
.segment	"OAM"
_player:
	.res	4,$00
.segment	"BSS"

; ---------------------------------------------------------------
; void __near__ drawStatus (void)
; ---------------------------------------------------------------

.segment	"CODE"

.proc	_drawStatus: near

.segment	"CODE"

;
; PPU.vram.address = 0x20;
;
	lda     #$20
	sta     $2006
;
; PPU.vram.address = 0x40 + 0x04;    
;
	lda     #$44
	sta     $2006
;
; for(i = 0; i < sizeof(ScoreText); i++) {
;
	lda     #$00
	sta     _i
	sta     _i+1
L01B7:	lda     _i+1
	cmp     #$00
	bne     L01BF
	lda     _i
	cmp     #$06
L01BF:	bcs     L01B8
;
; PPU.vram.data = ScoreText[i];
;
	lda     #<(_ScoreText)
	sta     ptr1
	lda     #>(_ScoreText)
	clc
	adc     _i+1
	sta     ptr1+1
	ldy     _i
	lda     (ptr1),y
	sta     $2007
;
; for(i = 0; i < sizeof(ScoreText); i++) {
;
	lda     _i
	ldx     _i+1
	clc
	adc     #$01
	bcc     L01C1
	inx
L01C1:	sta     _i
	stx     _i+1
	jmp     L01B7
;
; }
;
L01B8:	rts

.endproc

; ---------------------------------------------------------------
; void __near__ drawBackground (void)
; ---------------------------------------------------------------

.segment	"CODE"

.proc	_drawBackground: near

.segment	"CODE"

;
; PPU.vram.address = 0x20;
;
	lda     #$20
	sta     $2006
;
; PPU.vram.address = 0xA0;
;
	lda     #$A0
	sta     $2006
;
; for(i = 0; i < 64; i++) {
;
	lda     #$00
	sta     _i
	sta     _i+1
L01CD:	lda     _i+1
	cmp     #$00
	bne     L01D4
	lda     _i
	cmp     #$40
L01D4:	jcs     L01CE
;
; mapX = (i & 0x1F) >> 1;
;
	lda     _i
	ldx     #$00
	and     #$1F
	lsr     a
	sta     _mapX
	stx     _mapX+1
;
; mapY = (i >> 6);
;
	lda     _i
	ldx     _i+1
	jsr     shrax4
	jsr     shrax2
	sta     _mapY
	stx     _mapY+1
;
; tileIndex = (map[mapX + (mapY << 6)] & 39) << 1;
;
	lda     _mapY
	ldx     _mapY+1
	jsr     shlax4
	jsr     shlax2
	clc
	adc     _mapX
	sta     ptr1
	txa
	adc     _mapX+1
	clc
	adc     #>(_map)
	sta     ptr1+1
	ldy     #<(_map)
	lda     (ptr1),y
	ldx     #$00
	and     #$27
	asl     a
	bcc     L026E
	inx
L026E:	sta     _tileIndex
	stx     _tileIndex+1
;
; if((i >> 5) & 0x1) {
;
	lda     _i
	ldx     _i+1
	jsr     shrax4
	jsr     shrax1
	and     #$01
	beq     L01E2
;
; tileIndex += 16;
;
	lda     #$10
	clc
	adc     _tileIndex
	sta     _tileIndex
	bcc     L01E2
	inc     _tileIndex+1
;
; if(i & 0x1) {
;
L01E2:	lda     _i
	and     #$01
	beq     L026F
;
; ++tileIndex;
;
	inc     _tileIndex
	bne     L026F
	inc     _tileIndex+1
;
; PPU.vram.data = (uint8_t)tileIndex;
;
L026F:	lda     _tileIndex
	sta     $2007
;
; for(i = 0; i < 64; i++) {
;
	lda     _i
	ldx     _i+1
	clc
	adc     #$01
	bcc     L01D6
	inx
L01D6:	sta     _i
	stx     _i+1
	jmp     L01CD
;
; PPU.vram.address = 0x23;
;
L01CE:	lda     #$23
	sta     $2006
;
; PPU.vram.address = 0xC0;
;
	lda     #$C0
	sta     $2006
;
; for(i = 0; i < 64; i++) {
;
	lda     #$00
	sta     _i
	sta     _i+1
L01F5:	lda     _i+1
	cmp     #$00
	bne     L01FC
	lda     _i
	cmp     #$40
L01FC:	bcs     L01F6
;
; PPU.vram.data = i & 0x0F;
;
	lda     _i
	and     #$0F
	sta     $2007
;
; for(i = 0; i < 64; i++) {
;
	lda     _i
	ldx     _i+1
	clc
	adc     #$01
	bcc     L01FE
	inx
L01FE:	sta     _i
	stx     _i+1
	jmp     L01F5
;
; }
;
L01F6:	rts

.endproc

; ---------------------------------------------------------------
; void __near__ main (void)
; ---------------------------------------------------------------

.segment	"CODE"

.proc	_main: near

.segment	"CODE"

;
; PPU.vram.address = 0x3f;
;
	lda     #$3F
	sta     $2006
;
; PPU.vram.address = 0x00;
;
	lda     #$00
	sta     $2006
;
; for ( i = 0; i < sizeof(PALETTE); ++i ) {
;
	sta     _i
	sta     _i+1
L0209:	lda     _i+1
	cmp     #$00
	bne     L0211
	lda     _i
	cmp     #$20
L0211:	bcs     L020A
;
; PPU.vram.data = PALETTE[i];
;
	lda     #<(_PALETTE)
	sta     ptr1
	lda     #>(_PALETTE)
	clc
	adc     _i+1
	sta     ptr1+1
	ldy     _i
	lda     (ptr1),y
	sta     $2007
;
; for ( i = 0; i < sizeof(PALETTE); ++i ) {
;
	inc     _i
	bne     L0209
	inc     _i+1
	jmp     L0209
;
; drawStatus();
;
L020A:	jsr     _drawStatus
;
; drawBackground();
;
	jsr     _drawBackground
;
; Scroll = 0;
;
	lda     #$00
	sta     _Scroll
	sta     _Scroll+1
;
; player.x = 20;
;
	lda     #$14
	sta     _player+3
;
; player.y = 20;
;
	sta     _player
;
; player.tile_index = 0x0;
;
	lda     #$00
	sta     _player+1
;
; PPU.scroll = 0x00;
;
	sta     $2005
;
; PPU.scroll = 0x00;
;
	sta     $2005
;
; PPU.control = PPUCTRL_NAMETABLE_0 | PPUCTRL_INC_1_HORIZ | PPUCTRL_BPATTERN_0 | PPUCTRL_SPATTERN_1 | PPUCTRL_NMI_ON;
;
	lda     #$88
	sta     $2000
;
; PPU.mask = PPUMASK_COLOR | PPUMASK_L8_BSHOW | PPUMASK_L8_SSHOW | PPUMASK_SSHOW | PPUMASK_BSHOW;
;
	lda     #$1E
	sta     $2001
;
; APU.status = 0x0F;
;
	lda     #$0F
	sta     $4015
;
; WaitFrame();
;
L0231:	jsr     _WaitFrame
;
; if (InputPort1 & BUTTON_UP) {
;
	lda     _InputPort1
	and     #$08
	beq     L0270
;
; if (player.y > 0) {
;
	lda     _player
	beq     L0270
;
; --player.y;
;
	dec     _player
;
; if(!(InputPort1Prev & BUTTON_UP)) {
;
	lda     _InputPort1Prev
	and     #$08
	bne     L0270
;
; APU.pulse[0].control = 0x0F;
;
	lda     #$0F
	sta     $4000
;
; APU.pulse[0].ramp = 0x01;
;
	lda     #$01
	sta     $4001
;
; APU.pulse[0].period_low = 0x05;
;
	lda     #$05
	sta     $4002
;
; APU.pulse[0].len_period_high = (0x0F << 5) + 0x01;
;
	lda     #$E1
	sta     $4003
;
; if (InputPort1 & BUTTON_DOWN) {
;
L0270:	lda     _InputPort1
	and     #$04
	beq     L0271
;
; if (player.y < 255) {
;
	lda     _player
	cmp     #$FF
	bcs     L0271
;
; ++player.y;
;
	inc     _player
;
; if (InputPort1 & BUTTON_LEFT) {
;
L0271:	lda     _InputPort1
	and     #$02
	beq     L0272
;
; if (player.x > 0) {
;
	lda     _player+3
	beq     L0256
;
; --player.x;
;
	dec     _player+3
;
; if(Scroll == 0x0) {
;
L0256:	lda     _Scroll
	ora     _Scroll+1
	bne     L0259
;
; Scroll = 0x1FF;
;
	ldx     #$01
	lda     #$FF
	sta     _Scroll
	stx     _Scroll+1
;
; } else {
;
	jmp     L0272
;
; --Scroll;
;
L0259:	lda     _Scroll
	sec
	sbc     #$01
	sta     _Scroll
	bcs     L0272
	dec     _Scroll+1
;
; if (InputPort1 & BUTTON_RIGHT) {
;
L0272:	lda     _InputPort1
	and     #$01
	beq     L0273
;
; if (player.x < 255) {
;
	lda     _player+3
	cmp     #$FF
	bcs     L0263
;
; ++player.x;
;
	inc     _player+3
;
; ++Scroll;
;
L0263:	inc     _Scroll
	bne     L0267
	inc     _Scroll+1
;
; if(Scroll > 0x200) {
;
L0267:	lda     _Scroll
	cmp     #$01
	lda     _Scroll+1
	sbc     #$02
	bcc     L0273
;
; Scroll = 0x00;
;
	lda     #$00
	sta     _Scroll
	sta     _Scroll+1
;
; VRAMUpdateReady = 1;
;
L0273:	lda     #$01
	sta     _VRAMUpdateReady
;
; while (1) {
;
	jmp     L0231

.endproc

